
PrototypeSwerveDrive.elf:     file format elf32-avr

Sections:
Idx Name          Size      VMA       LMA       File off  Algn
  0 .data         000000be  00800200  000014e8  0000157c  2**0
                  CONTENTS, ALLOC, LOAD, DATA
  1 .text         000014e8  00000000  00000000  00000094  2**1
                  CONTENTS, ALLOC, LOAD, READONLY, CODE
  2 .bss          00000016  008002be  008002be  0000163a  2**0
                  ALLOC
  3 .stab         0000168c  00000000  00000000  0000163c  2**2
                  CONTENTS, READONLY, DEBUGGING
  4 .stabstr      00000544  00000000  00000000  00002cc8  2**0
                  CONTENTS, READONLY, DEBUGGING
  5 .debug_aranges 00000020  00000000  00000000  0000320c  2**0
                  CONTENTS, READONLY, DEBUGGING
  6 .debug_pubnames 00000246  00000000  00000000  0000322c  2**0
                  CONTENTS, READONLY, DEBUGGING
  7 .debug_info   00001157  00000000  00000000  00003472  2**0
                  CONTENTS, READONLY, DEBUGGING
  8 .debug_abbrev 0000045b  00000000  00000000  000045c9  2**0
                  CONTENTS, READONLY, DEBUGGING
  9 .debug_line   00000de8  00000000  00000000  00004a24  2**0
                  CONTENTS, READONLY, DEBUGGING
 10 .debug_frame  000001c0  00000000  00000000  0000580c  2**2
                  CONTENTS, READONLY, DEBUGGING
 11 .debug_str    000008a9  00000000  00000000  000059cc  2**0
                  CONTENTS, READONLY, DEBUGGING
 12 .debug_loc    000006f1  00000000  00000000  00006275  2**0
                  CONTENTS, READONLY, DEBUGGING
 13 .debug_pubtypes 0000007c  00000000  00000000  00006966  2**0
                  CONTENTS, READONLY, DEBUGGING

Disassembly of section .text:

00000000 <__vectors>:
       0:	0c 94 72 00 	jmp	0xe4	; 0xe4 <__ctors_end>
       4:	0c 94 d4 06 	jmp	0xda8	; 0xda8 <__vector_1>
       8:	0c 94 ff 06 	jmp	0xdfe	; 0xdfe <__vector_2>
       c:	0c 94 2a 07 	jmp	0xe54	; 0xe54 <__vector_3>
      10:	0c 94 55 07 	jmp	0xeaa	; 0xeaa <__vector_4>
      14:	0c 94 80 07 	jmp	0xf00	; 0xf00 <__vector_5>
      18:	0c 94 ab 07 	jmp	0xf56	; 0xf56 <__vector_6>
      1c:	0c 94 d6 07 	jmp	0xfac	; 0xfac <__vector_7>
      20:	0c 94 01 08 	jmp	0x1002	; 0x1002 <__vector_8>
      24:	0c 94 93 00 	jmp	0x126	; 0x126 <__bad_interrupt>
      28:	0c 94 93 00 	jmp	0x126	; 0x126 <__bad_interrupt>
      2c:	0c 94 93 00 	jmp	0x126	; 0x126 <__bad_interrupt>
      30:	0c 94 93 00 	jmp	0x126	; 0x126 <__bad_interrupt>
      34:	0c 94 d9 04 	jmp	0x9b2	; 0x9b2 <__vector_13>
      38:	0c 94 93 00 	jmp	0x126	; 0x126 <__bad_interrupt>
      3c:	0c 94 93 00 	jmp	0x126	; 0x126 <__bad_interrupt>
      40:	0c 94 93 00 	jmp	0x126	; 0x126 <__bad_interrupt>
      44:	0c 94 93 00 	jmp	0x126	; 0x126 <__bad_interrupt>
      48:	0c 94 93 00 	jmp	0x126	; 0x126 <__bad_interrupt>
      4c:	0c 94 93 00 	jmp	0x126	; 0x126 <__bad_interrupt>
      50:	0c 94 93 00 	jmp	0x126	; 0x126 <__bad_interrupt>
      54:	0c 94 93 00 	jmp	0x126	; 0x126 <__bad_interrupt>
      58:	0c 94 93 00 	jmp	0x126	; 0x126 <__bad_interrupt>
      5c:	0c 94 93 00 	jmp	0x126	; 0x126 <__bad_interrupt>
      60:	0c 94 93 00 	jmp	0x126	; 0x126 <__bad_interrupt>
      64:	0c 94 93 00 	jmp	0x126	; 0x126 <__bad_interrupt>
      68:	0c 94 93 00 	jmp	0x126	; 0x126 <__bad_interrupt>
      6c:	0c 94 93 00 	jmp	0x126	; 0x126 <__bad_interrupt>
      70:	0c 94 93 00 	jmp	0x126	; 0x126 <__bad_interrupt>
      74:	0c 94 93 00 	jmp	0x126	; 0x126 <__bad_interrupt>
      78:	0c 94 93 00 	jmp	0x126	; 0x126 <__bad_interrupt>
      7c:	0c 94 93 00 	jmp	0x126	; 0x126 <__bad_interrupt>
      80:	0c 94 93 00 	jmp	0x126	; 0x126 <__bad_interrupt>
      84:	0c 94 93 00 	jmp	0x126	; 0x126 <__bad_interrupt>
      88:	0c 94 93 00 	jmp	0x126	; 0x126 <__bad_interrupt>
      8c:	0c 94 93 00 	jmp	0x126	; 0x126 <__bad_interrupt>
      90:	0c 94 93 00 	jmp	0x126	; 0x126 <__bad_interrupt>
      94:	0c 94 93 00 	jmp	0x126	; 0x126 <__bad_interrupt>
      98:	0c 94 93 00 	jmp	0x126	; 0x126 <__bad_interrupt>
      9c:	0c 94 93 00 	jmp	0x126	; 0x126 <__bad_interrupt>
      a0:	0c 94 93 00 	jmp	0x126	; 0x126 <__bad_interrupt>
      a4:	0c 94 93 00 	jmp	0x126	; 0x126 <__bad_interrupt>
      a8:	0c 94 93 00 	jmp	0x126	; 0x126 <__bad_interrupt>
      ac:	0c 94 93 00 	jmp	0x126	; 0x126 <__bad_interrupt>
      b0:	0c 94 93 00 	jmp	0x126	; 0x126 <__bad_interrupt>
      b4:	0c 94 93 00 	jmp	0x126	; 0x126 <__bad_interrupt>
      b8:	0c 94 93 00 	jmp	0x126	; 0x126 <__bad_interrupt>
      bc:	0c 94 93 00 	jmp	0x126	; 0x126 <__bad_interrupt>
      c0:	0c 94 93 00 	jmp	0x126	; 0x126 <__bad_interrupt>
      c4:	0c 94 93 00 	jmp	0x126	; 0x126 <__bad_interrupt>
      c8:	0c 94 93 00 	jmp	0x126	; 0x126 <__bad_interrupt>
      cc:	0c 94 93 00 	jmp	0x126	; 0x126 <__bad_interrupt>
      d0:	0c 94 93 00 	jmp	0x126	; 0x126 <__bad_interrupt>
      d4:	0c 94 93 00 	jmp	0x126	; 0x126 <__bad_interrupt>
      d8:	0c 94 93 00 	jmp	0x126	; 0x126 <__bad_interrupt>
      dc:	0c 94 93 00 	jmp	0x126	; 0x126 <__bad_interrupt>
      e0:	0c 94 93 00 	jmp	0x126	; 0x126 <__bad_interrupt>

000000e4 <__ctors_end>:
      e4:	11 24       	eor	r1, r1
      e6:	1f be       	out	0x3f, r1	; 63
      e8:	cf ef       	ldi	r28, 0xFF	; 255
      ea:	d1 e2       	ldi	r29, 0x21	; 33
      ec:	de bf       	out	0x3e, r29	; 62
      ee:	cd bf       	out	0x3d, r28	; 61
      f0:	00 e0       	ldi	r16, 0x00	; 0
      f2:	0c bf       	out	0x3c, r16	; 60

000000f4 <__do_copy_data>:
      f4:	12 e0       	ldi	r17, 0x02	; 2
      f6:	a0 e0       	ldi	r26, 0x00	; 0
      f8:	b2 e0       	ldi	r27, 0x02	; 2
      fa:	e8 ee       	ldi	r30, 0xE8	; 232
      fc:	f4 e1       	ldi	r31, 0x14	; 20
      fe:	00 e0       	ldi	r16, 0x00	; 0
     100:	0b bf       	out	0x3b, r16	; 59
     102:	02 c0       	rjmp	.+4      	; 0x108 <__do_copy_data+0x14>
     104:	07 90       	elpm	r0, Z+
     106:	0d 92       	st	X+, r0
     108:	ae 3b       	cpi	r26, 0xBE	; 190
     10a:	b1 07       	cpc	r27, r17
     10c:	d9 f7       	brne	.-10     	; 0x104 <__do_copy_data+0x10>

0000010e <__do_clear_bss>:
     10e:	12 e0       	ldi	r17, 0x02	; 2
     110:	ae eb       	ldi	r26, 0xBE	; 190
     112:	b2 e0       	ldi	r27, 0x02	; 2
     114:	01 c0       	rjmp	.+2      	; 0x118 <.do_clear_bss_start>

00000116 <.do_clear_bss_loop>:
     116:	1d 92       	st	X+, r1

00000118 <.do_clear_bss_start>:
     118:	a4 3d       	cpi	r26, 0xD4	; 212
     11a:	b1 07       	cpc	r27, r17
     11c:	e1 f7       	brne	.-8      	; 0x116 <.do_clear_bss_loop>
     11e:	0e 94 cd 08 	call	0x119a	; 0x119a <main>
     122:	0c 94 72 0a 	jmp	0x14e4	; 0x14e4 <_exit>

00000126 <__bad_interrupt>:
     126:	0c 94 00 00 	jmp	0	; 0x0 <__vectors>

0000012a <_Z7pinModehh>:
//Functions:

void pinMode(uint8_t pInno,uint8_t mOde)
{
	int l;
  	if(mOde==0)
     12a:	66 23       	and	r22, r22
     12c:	09 f0       	breq	.+2      	; 0x130 <_Z7pinModehh+0x6>
     12e:	b8 c0       	rjmp	.+368    	; 0x2a0 <_Z7pinModehh+0x176>
    {
    	switch(d[pInno]){
     130:	90 e0       	ldi	r25, 0x00	; 0
     132:	fc 01       	movw	r30, r24
     134:	e8 58       	subi	r30, 0x88	; 136
     136:	fd 4f       	sbci	r31, 0xFD	; 253
     138:	20 81       	ld	r18, Z
     13a:	25 36       	cpi	r18, 0x65	; 101
     13c:	09 f4       	brne	.+2      	; 0x140 <_Z7pinModehh+0x16>
     13e:	50 c0       	rjmp	.+160    	; 0x1e0 <_Z7pinModehh+0xb6>
     140:	26 36       	cpi	r18, 0x66	; 102
     142:	40 f4       	brcc	.+16     	; 0x154 <_Z7pinModehh+0x2a>
     144:	23 36       	cpi	r18, 0x63	; 99
     146:	41 f1       	breq	.+80     	; 0x198 <_Z7pinModehh+0x6e>
     148:	24 36       	cpi	r18, 0x64	; 100
     14a:	c0 f5       	brcc	.+112    	; 0x1bc <_Z7pinModehh+0x92>
     14c:	22 36       	cpi	r18, 0x62	; 98
     14e:	09 f0       	breq	.+2      	; 0x152 <_Z7pinModehh+0x28>
     150:	5e c1       	rjmp	.+700    	; 0x40e <_Z7pinModehh+0x2e4>
     152:	10 c0       	rjmp	.+32     	; 0x174 <_Z7pinModehh+0x4a>
     154:	28 36       	cpi	r18, 0x68	; 104
     156:	09 f4       	brne	.+2      	; 0x15a <_Z7pinModehh+0x30>
     158:	67 c0       	rjmp	.+206    	; 0x228 <_Z7pinModehh+0xfe>
     15a:	29 36       	cpi	r18, 0x69	; 105
     15c:	20 f4       	brcc	.+8      	; 0x166 <_Z7pinModehh+0x3c>
     15e:	27 36       	cpi	r18, 0x67	; 103
     160:	09 f0       	breq	.+2      	; 0x164 <_Z7pinModehh+0x3a>
     162:	55 c1       	rjmp	.+682    	; 0x40e <_Z7pinModehh+0x2e4>
     164:	4f c0       	rjmp	.+158    	; 0x204 <_Z7pinModehh+0xda>
     166:	2a 36       	cpi	r18, 0x6A	; 106
     168:	09 f4       	brne	.+2      	; 0x16c <_Z7pinModehh+0x42>
     16a:	72 c0       	rjmp	.+228    	; 0x250 <_Z7pinModehh+0x126>
     16c:	2c 36       	cpi	r18, 0x6C	; 108
     16e:	09 f0       	breq	.+2      	; 0x172 <_Z7pinModehh+0x48>
     170:	4e c1       	rjmp	.+668    	; 0x40e <_Z7pinModehh+0x2e4>
     172:	82 c0       	rjmp	.+260    	; 0x278 <_Z7pinModehh+0x14e>

          	case'b':
                  DDRB&=~(1<<c[pInno]);
     174:	24 b1       	in	r18, 0x04	; 4
     176:	fc 01       	movw	r30, r24
     178:	ee 0f       	add	r30, r30
     17a:	ff 1f       	adc	r31, r31
     17c:	e0 50       	subi	r30, 0x00	; 0
     17e:	fe 4f       	sbci	r31, 0xFE	; 254
     180:	81 e0       	ldi	r24, 0x01	; 1
     182:	90 e0       	ldi	r25, 0x00	; 0
     184:	00 80       	ld	r0, Z
     186:	02 c0       	rjmp	.+4      	; 0x18c <_Z7pinModehh+0x62>
     188:	88 0f       	add	r24, r24
     18a:	99 1f       	adc	r25, r25
     18c:	0a 94       	dec	r0
     18e:	e2 f7       	brpl	.-8      	; 0x188 <_Z7pinModehh+0x5e>
     190:	80 95       	com	r24
     192:	82 23       	and	r24, r18
     194:	84 b9       	out	0x04, r24	; 4
		           break;
     196:	08 95       	ret
          	case'c':
                 DDRC&=~(1<<c[pInno]);
     198:	27 b1       	in	r18, 0x07	; 7
     19a:	fc 01       	movw	r30, r24
     19c:	ee 0f       	add	r30, r30
     19e:	ff 1f       	adc	r31, r31
     1a0:	e0 50       	subi	r30, 0x00	; 0
     1a2:	fe 4f       	sbci	r31, 0xFE	; 254
     1a4:	81 e0       	ldi	r24, 0x01	; 1
     1a6:	90 e0       	ldi	r25, 0x00	; 0
     1a8:	00 80       	ld	r0, Z
     1aa:	02 c0       	rjmp	.+4      	; 0x1b0 <_Z7pinModehh+0x86>
     1ac:	88 0f       	add	r24, r24
     1ae:	99 1f       	adc	r25, r25
     1b0:	0a 94       	dec	r0
     1b2:	e2 f7       	brpl	.-8      	; 0x1ac <_Z7pinModehh+0x82>
     1b4:	80 95       	com	r24
     1b6:	82 23       	and	r24, r18
     1b8:	87 b9       	out	0x07, r24	; 7
		          break;
     1ba:	08 95       	ret
          	case'd':
                 DDRD&=~(1<<c[pInno]);
     1bc:	2a b1       	in	r18, 0x0a	; 10
     1be:	fc 01       	movw	r30, r24
     1c0:	ee 0f       	add	r30, r30
     1c2:	ff 1f       	adc	r31, r31
     1c4:	e0 50       	subi	r30, 0x00	; 0
     1c6:	fe 4f       	sbci	r31, 0xFE	; 254
     1c8:	81 e0       	ldi	r24, 0x01	; 1
     1ca:	90 e0       	ldi	r25, 0x00	; 0
     1cc:	00 80       	ld	r0, Z
     1ce:	02 c0       	rjmp	.+4      	; 0x1d4 <_Z7pinModehh+0xaa>
     1d0:	88 0f       	add	r24, r24
     1d2:	99 1f       	adc	r25, r25
     1d4:	0a 94       	dec	r0
     1d6:	e2 f7       	brpl	.-8      	; 0x1d0 <_Z7pinModehh+0xa6>
     1d8:	80 95       	com	r24
     1da:	82 23       	and	r24, r18
     1dc:	8a b9       	out	0x0a, r24	; 10
		          break;
     1de:	08 95       	ret
	      	case'e':
                  DDRE&=~(1<<c[pInno]);
     1e0:	2d b1       	in	r18, 0x0d	; 13
     1e2:	fc 01       	movw	r30, r24
     1e4:	ee 0f       	add	r30, r30
     1e6:	ff 1f       	adc	r31, r31
     1e8:	e0 50       	subi	r30, 0x00	; 0
     1ea:	fe 4f       	sbci	r31, 0xFE	; 254
     1ec:	81 e0       	ldi	r24, 0x01	; 1
     1ee:	90 e0       	ldi	r25, 0x00	; 0
     1f0:	00 80       	ld	r0, Z
     1f2:	02 c0       	rjmp	.+4      	; 0x1f8 <_Z7pinModehh+0xce>
     1f4:	88 0f       	add	r24, r24
     1f6:	99 1f       	adc	r25, r25
     1f8:	0a 94       	dec	r0
     1fa:	e2 f7       	brpl	.-8      	; 0x1f4 <_Z7pinModehh+0xca>
     1fc:	80 95       	com	r24
     1fe:	82 23       	and	r24, r18
     200:	8d b9       	out	0x0d, r24	; 13
		           break;
     202:	08 95       	ret
		    case'g':
                  DDRG&=~(1<<c[pInno]);
     204:	23 b3       	in	r18, 0x13	; 19
     206:	fc 01       	movw	r30, r24
     208:	ee 0f       	add	r30, r30
     20a:	ff 1f       	adc	r31, r31
     20c:	e0 50       	subi	r30, 0x00	; 0
     20e:	fe 4f       	sbci	r31, 0xFE	; 254
     210:	81 e0       	ldi	r24, 0x01	; 1
     212:	90 e0       	ldi	r25, 0x00	; 0
     214:	00 80       	ld	r0, Z
     216:	02 c0       	rjmp	.+4      	; 0x21c <_Z7pinModehh+0xf2>
     218:	88 0f       	add	r24, r24
     21a:	99 1f       	adc	r25, r25
     21c:	0a 94       	dec	r0
     21e:	e2 f7       	brpl	.-8      	; 0x218 <_Z7pinModehh+0xee>
     220:	80 95       	com	r24
     222:	82 23       	and	r24, r18
     224:	83 bb       	out	0x13, r24	; 19
		           break;
     226:	08 95       	ret
			case'h':
                  DDRH&=~(1<<c[pInno]);
     228:	e1 e0       	ldi	r30, 0x01	; 1
     22a:	f1 e0       	ldi	r31, 0x01	; 1
     22c:	20 81       	ld	r18, Z
     22e:	dc 01       	movw	r26, r24
     230:	aa 0f       	add	r26, r26
     232:	bb 1f       	adc	r27, r27
     234:	a0 50       	subi	r26, 0x00	; 0
     236:	be 4f       	sbci	r27, 0xFE	; 254
     238:	81 e0       	ldi	r24, 0x01	; 1
     23a:	90 e0       	ldi	r25, 0x00	; 0
     23c:	0c 90       	ld	r0, X
     23e:	02 c0       	rjmp	.+4      	; 0x244 <_Z7pinModehh+0x11a>
     240:	88 0f       	add	r24, r24
     242:	99 1f       	adc	r25, r25
     244:	0a 94       	dec	r0
     246:	e2 f7       	brpl	.-8      	; 0x240 <_Z7pinModehh+0x116>
     248:	80 95       	com	r24
     24a:	82 23       	and	r24, r18
     24c:	80 83       	st	Z, r24
				  break;
     24e:	08 95       	ret
		    case'j':
                  DDRJ&=~(1<<c[pInno]);
     250:	e4 e0       	ldi	r30, 0x04	; 4
     252:	f1 e0       	ldi	r31, 0x01	; 1
     254:	20 81       	ld	r18, Z
     256:	dc 01       	movw	r26, r24
     258:	aa 0f       	add	r26, r26
     25a:	bb 1f       	adc	r27, r27
     25c:	a0 50       	subi	r26, 0x00	; 0
     25e:	be 4f       	sbci	r27, 0xFE	; 254
     260:	81 e0       	ldi	r24, 0x01	; 1
     262:	90 e0       	ldi	r25, 0x00	; 0
     264:	0c 90       	ld	r0, X
     266:	02 c0       	rjmp	.+4      	; 0x26c <_Z7pinModehh+0x142>
     268:	88 0f       	add	r24, r24
     26a:	99 1f       	adc	r25, r25
     26c:	0a 94       	dec	r0
     26e:	e2 f7       	brpl	.-8      	; 0x268 <_Z7pinModehh+0x13e>
     270:	80 95       	com	r24
     272:	82 23       	and	r24, r18
     274:	80 83       	st	Z, r24
		          break;
     276:	08 95       	ret
			case'l':
                  DDRL&=~(1<<c[pInno]);
     278:	ea e0       	ldi	r30, 0x0A	; 10
     27a:	f1 e0       	ldi	r31, 0x01	; 1
     27c:	20 81       	ld	r18, Z
     27e:	dc 01       	movw	r26, r24
     280:	aa 0f       	add	r26, r26
     282:	bb 1f       	adc	r27, r27
     284:	a0 50       	subi	r26, 0x00	; 0
     286:	be 4f       	sbci	r27, 0xFE	; 254
     288:	81 e0       	ldi	r24, 0x01	; 1
     28a:	90 e0       	ldi	r25, 0x00	; 0
     28c:	0c 90       	ld	r0, X
     28e:	02 c0       	rjmp	.+4      	; 0x294 <_Z7pinModehh+0x16a>
     290:	88 0f       	add	r24, r24
     292:	99 1f       	adc	r25, r25
     294:	0a 94       	dec	r0
     296:	e2 f7       	brpl	.-8      	; 0x290 <_Z7pinModehh+0x166>
     298:	80 95       	com	r24
     29a:	82 23       	and	r24, r18
     29c:	80 83       	st	Z, r24
		          break;
     29e:	08 95       	ret
     	}
	}
	else{
			switch(d[pInno])
     2a0:	90 e0       	ldi	r25, 0x00	; 0
     2a2:	fc 01       	movw	r30, r24
     2a4:	e8 58       	subi	r30, 0x88	; 136
     2a6:	fd 4f       	sbci	r31, 0xFD	; 253
     2a8:	20 81       	ld	r18, Z
     2aa:	25 36       	cpi	r18, 0x65	; 101
     2ac:	09 f4       	brne	.+2      	; 0x2b0 <_Z7pinModehh+0x186>
     2ae:	50 c0       	rjmp	.+160    	; 0x350 <_Z7pinModehh+0x226>
     2b0:	26 36       	cpi	r18, 0x66	; 102
     2b2:	40 f4       	brcc	.+16     	; 0x2c4 <_Z7pinModehh+0x19a>
     2b4:	23 36       	cpi	r18, 0x63	; 99
     2b6:	41 f1       	breq	.+80     	; 0x308 <_Z7pinModehh+0x1de>
     2b8:	24 36       	cpi	r18, 0x64	; 100
     2ba:	c0 f5       	brcc	.+112    	; 0x32c <_Z7pinModehh+0x202>
     2bc:	22 36       	cpi	r18, 0x62	; 98
     2be:	09 f0       	breq	.+2      	; 0x2c2 <_Z7pinModehh+0x198>
     2c0:	a6 c0       	rjmp	.+332    	; 0x40e <_Z7pinModehh+0x2e4>
     2c2:	10 c0       	rjmp	.+32     	; 0x2e4 <_Z7pinModehh+0x1ba>
     2c4:	28 36       	cpi	r18, 0x68	; 104
     2c6:	09 f4       	brne	.+2      	; 0x2ca <_Z7pinModehh+0x1a0>
     2c8:	67 c0       	rjmp	.+206    	; 0x398 <_Z7pinModehh+0x26e>
     2ca:	29 36       	cpi	r18, 0x69	; 105
     2cc:	20 f4       	brcc	.+8      	; 0x2d6 <_Z7pinModehh+0x1ac>
     2ce:	27 36       	cpi	r18, 0x67	; 103
     2d0:	09 f0       	breq	.+2      	; 0x2d4 <_Z7pinModehh+0x1aa>
     2d2:	9d c0       	rjmp	.+314    	; 0x40e <_Z7pinModehh+0x2e4>
     2d4:	4f c0       	rjmp	.+158    	; 0x374 <_Z7pinModehh+0x24a>
     2d6:	2a 36       	cpi	r18, 0x6A	; 106
     2d8:	09 f4       	brne	.+2      	; 0x2dc <_Z7pinModehh+0x1b2>
     2da:	72 c0       	rjmp	.+228    	; 0x3c0 <_Z7pinModehh+0x296>
     2dc:	2c 36       	cpi	r18, 0x6C	; 108
     2de:	09 f0       	breq	.+2      	; 0x2e2 <_Z7pinModehh+0x1b8>
     2e0:	96 c0       	rjmp	.+300    	; 0x40e <_Z7pinModehh+0x2e4>
     2e2:	82 c0       	rjmp	.+260    	; 0x3e8 <_Z7pinModehh+0x2be>
         	{

	        	case'b':
	            	DDRB|=(1<<c[pInno]);
     2e4:	44 b1       	in	r20, 0x04	; 4
     2e6:	fc 01       	movw	r30, r24
     2e8:	ee 0f       	add	r30, r30
     2ea:	ff 1f       	adc	r31, r31
     2ec:	e0 50       	subi	r30, 0x00	; 0
     2ee:	fe 4f       	sbci	r31, 0xFE	; 254
     2f0:	21 e0       	ldi	r18, 0x01	; 1
     2f2:	30 e0       	ldi	r19, 0x00	; 0
     2f4:	c9 01       	movw	r24, r18
     2f6:	00 80       	ld	r0, Z
     2f8:	02 c0       	rjmp	.+4      	; 0x2fe <_Z7pinModehh+0x1d4>
     2fa:	88 0f       	add	r24, r24
     2fc:	99 1f       	adc	r25, r25
     2fe:	0a 94       	dec	r0
     300:	e2 f7       	brpl	.-8      	; 0x2fa <_Z7pinModehh+0x1d0>
     302:	84 2b       	or	r24, r20
     304:	84 b9       	out	0x04, r24	; 4
			    	break;
     306:	08 95       	ret
	          	case'c':
	                DDRC|=(1<<c[pInno]);
     308:	47 b1       	in	r20, 0x07	; 7
     30a:	fc 01       	movw	r30, r24
     30c:	ee 0f       	add	r30, r30
     30e:	ff 1f       	adc	r31, r31
     310:	e0 50       	subi	r30, 0x00	; 0
     312:	fe 4f       	sbci	r31, 0xFE	; 254
     314:	21 e0       	ldi	r18, 0x01	; 1
     316:	30 e0       	ldi	r19, 0x00	; 0
     318:	c9 01       	movw	r24, r18
     31a:	00 80       	ld	r0, Z
     31c:	02 c0       	rjmp	.+4      	; 0x322 <_Z7pinModehh+0x1f8>
     31e:	88 0f       	add	r24, r24
     320:	99 1f       	adc	r25, r25
     322:	0a 94       	dec	r0
     324:	e2 f7       	brpl	.-8      	; 0x31e <_Z7pinModehh+0x1f4>
     326:	84 2b       	or	r24, r20
     328:	87 b9       	out	0x07, r24	; 7
			        break;
     32a:	08 95       	ret
	          	case'd':
	                DDRD|=(1<<c[pInno]);
     32c:	4a b1       	in	r20, 0x0a	; 10
     32e:	fc 01       	movw	r30, r24
     330:	ee 0f       	add	r30, r30
     332:	ff 1f       	adc	r31, r31
     334:	e0 50       	subi	r30, 0x00	; 0
     336:	fe 4f       	sbci	r31, 0xFE	; 254
     338:	21 e0       	ldi	r18, 0x01	; 1
     33a:	30 e0       	ldi	r19, 0x00	; 0
     33c:	c9 01       	movw	r24, r18
     33e:	00 80       	ld	r0, Z
     340:	02 c0       	rjmp	.+4      	; 0x346 <_Z7pinModehh+0x21c>
     342:	88 0f       	add	r24, r24
     344:	99 1f       	adc	r25, r25
     346:	0a 94       	dec	r0
     348:	e2 f7       	brpl	.-8      	; 0x342 <_Z7pinModehh+0x218>
     34a:	84 2b       	or	r24, r20
     34c:	8a b9       	out	0x0a, r24	; 10
			        break;
     34e:	08 95       	ret
		      	case'e':
	                DDRE|=(1<<c[pInno]);
     350:	4d b1       	in	r20, 0x0d	; 13
     352:	fc 01       	movw	r30, r24
     354:	ee 0f       	add	r30, r30
     356:	ff 1f       	adc	r31, r31
     358:	e0 50       	subi	r30, 0x00	; 0
     35a:	fe 4f       	sbci	r31, 0xFE	; 254
     35c:	21 e0       	ldi	r18, 0x01	; 1
     35e:	30 e0       	ldi	r19, 0x00	; 0
     360:	c9 01       	movw	r24, r18
     362:	00 80       	ld	r0, Z
     364:	02 c0       	rjmp	.+4      	; 0x36a <_Z7pinModehh+0x240>
     366:	88 0f       	add	r24, r24
     368:	99 1f       	adc	r25, r25
     36a:	0a 94       	dec	r0
     36c:	e2 f7       	brpl	.-8      	; 0x366 <_Z7pinModehh+0x23c>
     36e:	84 2b       	or	r24, r20
     370:	8d b9       	out	0x0d, r24	; 13
			        break;
     372:	08 95       	ret
			    case'g':
	                DDRG|=(1<<c[pInno]);
     374:	43 b3       	in	r20, 0x13	; 19
     376:	fc 01       	movw	r30, r24
     378:	ee 0f       	add	r30, r30
     37a:	ff 1f       	adc	r31, r31
     37c:	e0 50       	subi	r30, 0x00	; 0
     37e:	fe 4f       	sbci	r31, 0xFE	; 254
     380:	21 e0       	ldi	r18, 0x01	; 1
     382:	30 e0       	ldi	r19, 0x00	; 0
     384:	c9 01       	movw	r24, r18
     386:	00 80       	ld	r0, Z
     388:	02 c0       	rjmp	.+4      	; 0x38e <_Z7pinModehh+0x264>
     38a:	88 0f       	add	r24, r24
     38c:	99 1f       	adc	r25, r25
     38e:	0a 94       	dec	r0
     390:	e2 f7       	brpl	.-8      	; 0x38a <_Z7pinModehh+0x260>
     392:	84 2b       	or	r24, r20
     394:	83 bb       	out	0x13, r24	; 19
			        break;
     396:	08 95       	ret
			 	case'h':
	                DDRH|=(1<<c[pInno]);
     398:	e1 e0       	ldi	r30, 0x01	; 1
     39a:	f1 e0       	ldi	r31, 0x01	; 1
     39c:	40 81       	ld	r20, Z
     39e:	dc 01       	movw	r26, r24
     3a0:	aa 0f       	add	r26, r26
     3a2:	bb 1f       	adc	r27, r27
     3a4:	a0 50       	subi	r26, 0x00	; 0
     3a6:	be 4f       	sbci	r27, 0xFE	; 254
     3a8:	21 e0       	ldi	r18, 0x01	; 1
     3aa:	30 e0       	ldi	r19, 0x00	; 0
     3ac:	c9 01       	movw	r24, r18
     3ae:	0c 90       	ld	r0, X
     3b0:	02 c0       	rjmp	.+4      	; 0x3b6 <_Z7pinModehh+0x28c>
     3b2:	88 0f       	add	r24, r24
     3b4:	99 1f       	adc	r25, r25
     3b6:	0a 94       	dec	r0
     3b8:	e2 f7       	brpl	.-8      	; 0x3b2 <_Z7pinModehh+0x288>
     3ba:	84 2b       	or	r24, r20
     3bc:	80 83       	st	Z, r24
			        break;
     3be:	08 95       	ret
			    case'j':
	                DDRJ|=(1<<c[pInno]);
     3c0:	e4 e0       	ldi	r30, 0x04	; 4
     3c2:	f1 e0       	ldi	r31, 0x01	; 1
     3c4:	40 81       	ld	r20, Z
     3c6:	dc 01       	movw	r26, r24
     3c8:	aa 0f       	add	r26, r26
     3ca:	bb 1f       	adc	r27, r27
     3cc:	a0 50       	subi	r26, 0x00	; 0
     3ce:	be 4f       	sbci	r27, 0xFE	; 254
     3d0:	21 e0       	ldi	r18, 0x01	; 1
     3d2:	30 e0       	ldi	r19, 0x00	; 0
     3d4:	c9 01       	movw	r24, r18
     3d6:	0c 90       	ld	r0, X
     3d8:	02 c0       	rjmp	.+4      	; 0x3de <_Z7pinModehh+0x2b4>
     3da:	88 0f       	add	r24, r24
     3dc:	99 1f       	adc	r25, r25
     3de:	0a 94       	dec	r0
     3e0:	e2 f7       	brpl	.-8      	; 0x3da <_Z7pinModehh+0x2b0>
     3e2:	84 2b       	or	r24, r20
     3e4:	80 83       	st	Z, r24
			        break;
     3e6:	08 95       	ret
				case'l':
	                DDRL|=(1<<c[pInno]);
     3e8:	ea e0       	ldi	r30, 0x0A	; 10
     3ea:	f1 e0       	ldi	r31, 0x01	; 1
     3ec:	40 81       	ld	r20, Z
     3ee:	dc 01       	movw	r26, r24
     3f0:	aa 0f       	add	r26, r26
     3f2:	bb 1f       	adc	r27, r27
     3f4:	a0 50       	subi	r26, 0x00	; 0
     3f6:	be 4f       	sbci	r27, 0xFE	; 254
     3f8:	21 e0       	ldi	r18, 0x01	; 1
     3fa:	30 e0       	ldi	r19, 0x00	; 0
     3fc:	c9 01       	movw	r24, r18
     3fe:	0c 90       	ld	r0, X
     400:	02 c0       	rjmp	.+4      	; 0x406 <_Z7pinModehh+0x2dc>
     402:	88 0f       	add	r24, r24
     404:	99 1f       	adc	r25, r25
     406:	0a 94       	dec	r0
     408:	e2 f7       	brpl	.-8      	; 0x402 <_Z7pinModehh+0x2d8>
     40a:	84 2b       	or	r24, r20
     40c:	80 83       	st	Z, r24
     40e:	08 95       	ret

00000410 <_Z12digitalWritehh>:
	}
}

void digitalWrite (uint8_t pInno ,uint8_t mOde)
{
   if(mOde==0)
     410:	66 23       	and	r22, r22
     412:	09 f0       	breq	.+2      	; 0x416 <_Z12digitalWritehh+0x6>
     414:	b8 c0       	rjmp	.+368    	; 0x586 <_Z12digitalWritehh+0x176>
        { switch(d[pInno])
     416:	90 e0       	ldi	r25, 0x00	; 0
     418:	fc 01       	movw	r30, r24
     41a:	e8 58       	subi	r30, 0x88	; 136
     41c:	fd 4f       	sbci	r31, 0xFD	; 253
     41e:	20 81       	ld	r18, Z
     420:	25 36       	cpi	r18, 0x65	; 101
     422:	09 f4       	brne	.+2      	; 0x426 <_Z12digitalWritehh+0x16>
     424:	50 c0       	rjmp	.+160    	; 0x4c6 <_Z12digitalWritehh+0xb6>
     426:	26 36       	cpi	r18, 0x66	; 102
     428:	40 f4       	brcc	.+16     	; 0x43a <_Z12digitalWritehh+0x2a>
     42a:	23 36       	cpi	r18, 0x63	; 99
     42c:	41 f1       	breq	.+80     	; 0x47e <_Z12digitalWritehh+0x6e>
     42e:	24 36       	cpi	r18, 0x64	; 100
     430:	c0 f5       	brcc	.+112    	; 0x4a2 <_Z12digitalWritehh+0x92>
     432:	22 36       	cpi	r18, 0x62	; 98
     434:	09 f0       	breq	.+2      	; 0x438 <_Z12digitalWritehh+0x28>
     436:	5e c1       	rjmp	.+700    	; 0x6f4 <_Z12digitalWritehh+0x2e4>
     438:	10 c0       	rjmp	.+32     	; 0x45a <_Z12digitalWritehh+0x4a>
     43a:	28 36       	cpi	r18, 0x68	; 104
     43c:	09 f4       	brne	.+2      	; 0x440 <_Z12digitalWritehh+0x30>
     43e:	67 c0       	rjmp	.+206    	; 0x50e <_Z12digitalWritehh+0xfe>
     440:	29 36       	cpi	r18, 0x69	; 105
     442:	20 f4       	brcc	.+8      	; 0x44c <_Z12digitalWritehh+0x3c>
     444:	27 36       	cpi	r18, 0x67	; 103
     446:	09 f0       	breq	.+2      	; 0x44a <_Z12digitalWritehh+0x3a>
     448:	55 c1       	rjmp	.+682    	; 0x6f4 <_Z12digitalWritehh+0x2e4>
     44a:	4f c0       	rjmp	.+158    	; 0x4ea <_Z12digitalWritehh+0xda>
     44c:	2a 36       	cpi	r18, 0x6A	; 106
     44e:	09 f4       	brne	.+2      	; 0x452 <_Z12digitalWritehh+0x42>
     450:	72 c0       	rjmp	.+228    	; 0x536 <_Z12digitalWritehh+0x126>
     452:	2c 36       	cpi	r18, 0x6C	; 108
     454:	09 f0       	breq	.+2      	; 0x458 <_Z12digitalWritehh+0x48>
     456:	4e c1       	rjmp	.+668    	; 0x6f4 <_Z12digitalWritehh+0x2e4>
     458:	82 c0       	rjmp	.+260    	; 0x55e <_Z12digitalWritehh+0x14e>
         {

	          case'b':
	                  PORTB&=~(1<<c[pInno]);
     45a:	25 b1       	in	r18, 0x05	; 5
     45c:	fc 01       	movw	r30, r24
     45e:	ee 0f       	add	r30, r30
     460:	ff 1f       	adc	r31, r31
     462:	e0 50       	subi	r30, 0x00	; 0
     464:	fe 4f       	sbci	r31, 0xFE	; 254
     466:	81 e0       	ldi	r24, 0x01	; 1
     468:	90 e0       	ldi	r25, 0x00	; 0
     46a:	00 80       	ld	r0, Z
     46c:	02 c0       	rjmp	.+4      	; 0x472 <_Z12digitalWritehh+0x62>
     46e:	88 0f       	add	r24, r24
     470:	99 1f       	adc	r25, r25
     472:	0a 94       	dec	r0
     474:	e2 f7       	brpl	.-8      	; 0x46e <_Z12digitalWritehh+0x5e>
     476:	80 95       	com	r24
     478:	82 23       	and	r24, r18
     47a:	85 b9       	out	0x05, r24	; 5
			           break;
     47c:	08 95       	ret
	          case'c':
	                 PORTB&=~(1<<c[pInno]);
     47e:	25 b1       	in	r18, 0x05	; 5
     480:	fc 01       	movw	r30, r24
     482:	ee 0f       	add	r30, r30
     484:	ff 1f       	adc	r31, r31
     486:	e0 50       	subi	r30, 0x00	; 0
     488:	fe 4f       	sbci	r31, 0xFE	; 254
     48a:	81 e0       	ldi	r24, 0x01	; 1
     48c:	90 e0       	ldi	r25, 0x00	; 0
     48e:	00 80       	ld	r0, Z
     490:	02 c0       	rjmp	.+4      	; 0x496 <_Z12digitalWritehh+0x86>
     492:	88 0f       	add	r24, r24
     494:	99 1f       	adc	r25, r25
     496:	0a 94       	dec	r0
     498:	e2 f7       	brpl	.-8      	; 0x492 <_Z12digitalWritehh+0x82>
     49a:	80 95       	com	r24
     49c:	82 23       	and	r24, r18
     49e:	85 b9       	out	0x05, r24	; 5
			          break;
     4a0:	08 95       	ret
	          case'd':
	                 PORTD&=~(1<<c[pInno]);
     4a2:	2b b1       	in	r18, 0x0b	; 11
     4a4:	fc 01       	movw	r30, r24
     4a6:	ee 0f       	add	r30, r30
     4a8:	ff 1f       	adc	r31, r31
     4aa:	e0 50       	subi	r30, 0x00	; 0
     4ac:	fe 4f       	sbci	r31, 0xFE	; 254
     4ae:	81 e0       	ldi	r24, 0x01	; 1
     4b0:	90 e0       	ldi	r25, 0x00	; 0
     4b2:	00 80       	ld	r0, Z
     4b4:	02 c0       	rjmp	.+4      	; 0x4ba <_Z12digitalWritehh+0xaa>
     4b6:	88 0f       	add	r24, r24
     4b8:	99 1f       	adc	r25, r25
     4ba:	0a 94       	dec	r0
     4bc:	e2 f7       	brpl	.-8      	; 0x4b6 <_Z12digitalWritehh+0xa6>
     4be:	80 95       	com	r24
     4c0:	82 23       	and	r24, r18
     4c2:	8b b9       	out	0x0b, r24	; 11
			          break;
     4c4:	08 95       	ret

		      case'e':
	                  PORTE&=~(1<<c[pInno]);
     4c6:	2e b1       	in	r18, 0x0e	; 14
     4c8:	fc 01       	movw	r30, r24
     4ca:	ee 0f       	add	r30, r30
     4cc:	ff 1f       	adc	r31, r31
     4ce:	e0 50       	subi	r30, 0x00	; 0
     4d0:	fe 4f       	sbci	r31, 0xFE	; 254
     4d2:	81 e0       	ldi	r24, 0x01	; 1
     4d4:	90 e0       	ldi	r25, 0x00	; 0
     4d6:	00 80       	ld	r0, Z
     4d8:	02 c0       	rjmp	.+4      	; 0x4de <_Z12digitalWritehh+0xce>
     4da:	88 0f       	add	r24, r24
     4dc:	99 1f       	adc	r25, r25
     4de:	0a 94       	dec	r0
     4e0:	e2 f7       	brpl	.-8      	; 0x4da <_Z12digitalWritehh+0xca>
     4e2:	80 95       	com	r24
     4e4:	82 23       	and	r24, r18
     4e6:	8e b9       	out	0x0e, r24	; 14
			           break;
     4e8:	08 95       	ret

			     case'g':
	                  PORTG&=~(1<<c[pInno]);
     4ea:	24 b3       	in	r18, 0x14	; 20
     4ec:	fc 01       	movw	r30, r24
     4ee:	ee 0f       	add	r30, r30
     4f0:	ff 1f       	adc	r31, r31
     4f2:	e0 50       	subi	r30, 0x00	; 0
     4f4:	fe 4f       	sbci	r31, 0xFE	; 254
     4f6:	81 e0       	ldi	r24, 0x01	; 1
     4f8:	90 e0       	ldi	r25, 0x00	; 0
     4fa:	00 80       	ld	r0, Z
     4fc:	02 c0       	rjmp	.+4      	; 0x502 <_Z12digitalWritehh+0xf2>
     4fe:	88 0f       	add	r24, r24
     500:	99 1f       	adc	r25, r25
     502:	0a 94       	dec	r0
     504:	e2 f7       	brpl	.-8      	; 0x4fe <_Z12digitalWritehh+0xee>
     506:	80 95       	com	r24
     508:	82 23       	and	r24, r18
     50a:	84 bb       	out	0x14, r24	; 20
			           break;
     50c:	08 95       	ret
			 case'h':
	                  PORTH&=~(1<<c[pInno]);
     50e:	e2 e0       	ldi	r30, 0x02	; 2
     510:	f1 e0       	ldi	r31, 0x01	; 1
     512:	20 81       	ld	r18, Z
     514:	dc 01       	movw	r26, r24
     516:	aa 0f       	add	r26, r26
     518:	bb 1f       	adc	r27, r27
     51a:	a0 50       	subi	r26, 0x00	; 0
     51c:	be 4f       	sbci	r27, 0xFE	; 254
     51e:	81 e0       	ldi	r24, 0x01	; 1
     520:	90 e0       	ldi	r25, 0x00	; 0
     522:	0c 90       	ld	r0, X
     524:	02 c0       	rjmp	.+4      	; 0x52a <_Z12digitalWritehh+0x11a>
     526:	88 0f       	add	r24, r24
     528:	99 1f       	adc	r25, r25
     52a:	0a 94       	dec	r0
     52c:	e2 f7       	brpl	.-8      	; 0x526 <_Z12digitalWritehh+0x116>
     52e:	80 95       	com	r24
     530:	82 23       	and	r24, r18
     532:	80 83       	st	Z, r24
			           break;
     534:	08 95       	ret

			     case'j':
	                  PORTJ&=~(1<<c[pInno]);
     536:	e5 e0       	ldi	r30, 0x05	; 5
     538:	f1 e0       	ldi	r31, 0x01	; 1
     53a:	20 81       	ld	r18, Z
     53c:	dc 01       	movw	r26, r24
     53e:	aa 0f       	add	r26, r26
     540:	bb 1f       	adc	r27, r27
     542:	a0 50       	subi	r26, 0x00	; 0
     544:	be 4f       	sbci	r27, 0xFE	; 254
     546:	81 e0       	ldi	r24, 0x01	; 1
     548:	90 e0       	ldi	r25, 0x00	; 0
     54a:	0c 90       	ld	r0, X
     54c:	02 c0       	rjmp	.+4      	; 0x552 <_Z12digitalWritehh+0x142>
     54e:	88 0f       	add	r24, r24
     550:	99 1f       	adc	r25, r25
     552:	0a 94       	dec	r0
     554:	e2 f7       	brpl	.-8      	; 0x54e <_Z12digitalWritehh+0x13e>
     556:	80 95       	com	r24
     558:	82 23       	and	r24, r18
     55a:	80 83       	st	Z, r24
			           break;
     55c:	08 95       	ret
				     case'l':
	                  PORTL&=~(1<<c[pInno]);
     55e:	eb e0       	ldi	r30, 0x0B	; 11
     560:	f1 e0       	ldi	r31, 0x01	; 1
     562:	20 81       	ld	r18, Z
     564:	dc 01       	movw	r26, r24
     566:	aa 0f       	add	r26, r26
     568:	bb 1f       	adc	r27, r27
     56a:	a0 50       	subi	r26, 0x00	; 0
     56c:	be 4f       	sbci	r27, 0xFE	; 254
     56e:	81 e0       	ldi	r24, 0x01	; 1
     570:	90 e0       	ldi	r25, 0x00	; 0
     572:	0c 90       	ld	r0, X
     574:	02 c0       	rjmp	.+4      	; 0x57a <_Z12digitalWritehh+0x16a>
     576:	88 0f       	add	r24, r24
     578:	99 1f       	adc	r25, r25
     57a:	0a 94       	dec	r0
     57c:	e2 f7       	brpl	.-8      	; 0x576 <_Z12digitalWritehh+0x166>
     57e:	80 95       	com	r24
     580:	82 23       	and	r24, r18
     582:	80 83       	st	Z, r24
			           break;
     584:	08 95       	ret
	     }  }
	else{          switch(d[pInno])
     586:	90 e0       	ldi	r25, 0x00	; 0
     588:	fc 01       	movw	r30, r24
     58a:	e8 58       	subi	r30, 0x88	; 136
     58c:	fd 4f       	sbci	r31, 0xFD	; 253
     58e:	20 81       	ld	r18, Z
     590:	25 36       	cpi	r18, 0x65	; 101
     592:	09 f4       	brne	.+2      	; 0x596 <_Z12digitalWritehh+0x186>
     594:	50 c0       	rjmp	.+160    	; 0x636 <_Z12digitalWritehh+0x226>
     596:	26 36       	cpi	r18, 0x66	; 102
     598:	40 f4       	brcc	.+16     	; 0x5aa <_Z12digitalWritehh+0x19a>
     59a:	23 36       	cpi	r18, 0x63	; 99
     59c:	41 f1       	breq	.+80     	; 0x5ee <_Z12digitalWritehh+0x1de>
     59e:	24 36       	cpi	r18, 0x64	; 100
     5a0:	c0 f5       	brcc	.+112    	; 0x612 <_Z12digitalWritehh+0x202>
     5a2:	22 36       	cpi	r18, 0x62	; 98
     5a4:	09 f0       	breq	.+2      	; 0x5a8 <_Z12digitalWritehh+0x198>
     5a6:	a6 c0       	rjmp	.+332    	; 0x6f4 <_Z12digitalWritehh+0x2e4>
     5a8:	10 c0       	rjmp	.+32     	; 0x5ca <_Z12digitalWritehh+0x1ba>
     5aa:	28 36       	cpi	r18, 0x68	; 104
     5ac:	09 f4       	brne	.+2      	; 0x5b0 <_Z12digitalWritehh+0x1a0>
     5ae:	67 c0       	rjmp	.+206    	; 0x67e <_Z12digitalWritehh+0x26e>
     5b0:	29 36       	cpi	r18, 0x69	; 105
     5b2:	20 f4       	brcc	.+8      	; 0x5bc <_Z12digitalWritehh+0x1ac>
     5b4:	27 36       	cpi	r18, 0x67	; 103
     5b6:	09 f0       	breq	.+2      	; 0x5ba <_Z12digitalWritehh+0x1aa>
     5b8:	9d c0       	rjmp	.+314    	; 0x6f4 <_Z12digitalWritehh+0x2e4>
     5ba:	4f c0       	rjmp	.+158    	; 0x65a <_Z12digitalWritehh+0x24a>
     5bc:	2a 36       	cpi	r18, 0x6A	; 106
     5be:	09 f4       	brne	.+2      	; 0x5c2 <_Z12digitalWritehh+0x1b2>
     5c0:	72 c0       	rjmp	.+228    	; 0x6a6 <_Z12digitalWritehh+0x296>
     5c2:	2c 36       	cpi	r18, 0x6C	; 108
     5c4:	09 f0       	breq	.+2      	; 0x5c8 <_Z12digitalWritehh+0x1b8>
     5c6:	96 c0       	rjmp	.+300    	; 0x6f4 <_Z12digitalWritehh+0x2e4>
     5c8:	82 c0       	rjmp	.+260    	; 0x6ce <_Z12digitalWritehh+0x2be>
         {

	          case'b':
	                 PORTB|=(1<<c[pInno]);
     5ca:	45 b1       	in	r20, 0x05	; 5
     5cc:	fc 01       	movw	r30, r24
     5ce:	ee 0f       	add	r30, r30
     5d0:	ff 1f       	adc	r31, r31
     5d2:	e0 50       	subi	r30, 0x00	; 0
     5d4:	fe 4f       	sbci	r31, 0xFE	; 254
     5d6:	21 e0       	ldi	r18, 0x01	; 1
     5d8:	30 e0       	ldi	r19, 0x00	; 0
     5da:	c9 01       	movw	r24, r18
     5dc:	00 80       	ld	r0, Z
     5de:	02 c0       	rjmp	.+4      	; 0x5e4 <_Z12digitalWritehh+0x1d4>
     5e0:	88 0f       	add	r24, r24
     5e2:	99 1f       	adc	r25, r25
     5e4:	0a 94       	dec	r0
     5e6:	e2 f7       	brpl	.-8      	; 0x5e0 <_Z12digitalWritehh+0x1d0>
     5e8:	84 2b       	or	r24, r20
     5ea:	85 b9       	out	0x05, r24	; 5
			           break;
     5ec:	08 95       	ret
	          case'c':
	                 PORTC|=(1<<c[pInno]);
     5ee:	48 b1       	in	r20, 0x08	; 8
     5f0:	fc 01       	movw	r30, r24
     5f2:	ee 0f       	add	r30, r30
     5f4:	ff 1f       	adc	r31, r31
     5f6:	e0 50       	subi	r30, 0x00	; 0
     5f8:	fe 4f       	sbci	r31, 0xFE	; 254
     5fa:	21 e0       	ldi	r18, 0x01	; 1
     5fc:	30 e0       	ldi	r19, 0x00	; 0
     5fe:	c9 01       	movw	r24, r18
     600:	00 80       	ld	r0, Z
     602:	02 c0       	rjmp	.+4      	; 0x608 <_Z12digitalWritehh+0x1f8>
     604:	88 0f       	add	r24, r24
     606:	99 1f       	adc	r25, r25
     608:	0a 94       	dec	r0
     60a:	e2 f7       	brpl	.-8      	; 0x604 <_Z12digitalWritehh+0x1f4>
     60c:	84 2b       	or	r24, r20
     60e:	88 b9       	out	0x08, r24	; 8
			          break;
     610:	08 95       	ret
	          case'd':
	                 PORTD|=(1<<c[pInno]);
     612:	4b b1       	in	r20, 0x0b	; 11
     614:	fc 01       	movw	r30, r24
     616:	ee 0f       	add	r30, r30
     618:	ff 1f       	adc	r31, r31
     61a:	e0 50       	subi	r30, 0x00	; 0
     61c:	fe 4f       	sbci	r31, 0xFE	; 254
     61e:	21 e0       	ldi	r18, 0x01	; 1
     620:	30 e0       	ldi	r19, 0x00	; 0
     622:	c9 01       	movw	r24, r18
     624:	00 80       	ld	r0, Z
     626:	02 c0       	rjmp	.+4      	; 0x62c <_Z12digitalWritehh+0x21c>
     628:	88 0f       	add	r24, r24
     62a:	99 1f       	adc	r25, r25
     62c:	0a 94       	dec	r0
     62e:	e2 f7       	brpl	.-8      	; 0x628 <_Z12digitalWritehh+0x218>
     630:	84 2b       	or	r24, r20
     632:	8b b9       	out	0x0b, r24	; 11
			          break;
     634:	08 95       	ret

		      case'e':
	                  PORTE|=(1<<c[pInno]);
     636:	4e b1       	in	r20, 0x0e	; 14
     638:	fc 01       	movw	r30, r24
     63a:	ee 0f       	add	r30, r30
     63c:	ff 1f       	adc	r31, r31
     63e:	e0 50       	subi	r30, 0x00	; 0
     640:	fe 4f       	sbci	r31, 0xFE	; 254
     642:	21 e0       	ldi	r18, 0x01	; 1
     644:	30 e0       	ldi	r19, 0x00	; 0
     646:	c9 01       	movw	r24, r18
     648:	00 80       	ld	r0, Z
     64a:	02 c0       	rjmp	.+4      	; 0x650 <_Z12digitalWritehh+0x240>
     64c:	88 0f       	add	r24, r24
     64e:	99 1f       	adc	r25, r25
     650:	0a 94       	dec	r0
     652:	e2 f7       	brpl	.-8      	; 0x64c <_Z12digitalWritehh+0x23c>
     654:	84 2b       	or	r24, r20
     656:	8e b9       	out	0x0e, r24	; 14
			           break;
     658:	08 95       	ret

			     case'g':
	                  PORTG|=(1<<c[pInno]);
     65a:	44 b3       	in	r20, 0x14	; 20
     65c:	fc 01       	movw	r30, r24
     65e:	ee 0f       	add	r30, r30
     660:	ff 1f       	adc	r31, r31
     662:	e0 50       	subi	r30, 0x00	; 0
     664:	fe 4f       	sbci	r31, 0xFE	; 254
     666:	21 e0       	ldi	r18, 0x01	; 1
     668:	30 e0       	ldi	r19, 0x00	; 0
     66a:	c9 01       	movw	r24, r18
     66c:	00 80       	ld	r0, Z
     66e:	02 c0       	rjmp	.+4      	; 0x674 <_Z12digitalWritehh+0x264>
     670:	88 0f       	add	r24, r24
     672:	99 1f       	adc	r25, r25
     674:	0a 94       	dec	r0
     676:	e2 f7       	brpl	.-8      	; 0x670 <_Z12digitalWritehh+0x260>
     678:	84 2b       	or	r24, r20
     67a:	84 bb       	out	0x14, r24	; 20
			           break;
     67c:	08 95       	ret
			 case'h':
	                  PORTH|=(1<<c[pInno]);
     67e:	e2 e0       	ldi	r30, 0x02	; 2
     680:	f1 e0       	ldi	r31, 0x01	; 1
     682:	40 81       	ld	r20, Z
     684:	dc 01       	movw	r26, r24
     686:	aa 0f       	add	r26, r26
     688:	bb 1f       	adc	r27, r27
     68a:	a0 50       	subi	r26, 0x00	; 0
     68c:	be 4f       	sbci	r27, 0xFE	; 254
     68e:	21 e0       	ldi	r18, 0x01	; 1
     690:	30 e0       	ldi	r19, 0x00	; 0
     692:	c9 01       	movw	r24, r18
     694:	0c 90       	ld	r0, X
     696:	02 c0       	rjmp	.+4      	; 0x69c <_Z12digitalWritehh+0x28c>
     698:	88 0f       	add	r24, r24
     69a:	99 1f       	adc	r25, r25
     69c:	0a 94       	dec	r0
     69e:	e2 f7       	brpl	.-8      	; 0x698 <_Z12digitalWritehh+0x288>
     6a0:	84 2b       	or	r24, r20
     6a2:	80 83       	st	Z, r24
			           break;
     6a4:	08 95       	ret
		     /*case'i':
	                  PORTI|=(1<<c[pInno]);
			           break;*/
			     case'j':
	                  PORTJ|=(1<<c[pInno]);
     6a6:	e5 e0       	ldi	r30, 0x05	; 5
     6a8:	f1 e0       	ldi	r31, 0x01	; 1
     6aa:	40 81       	ld	r20, Z
     6ac:	dc 01       	movw	r26, r24
     6ae:	aa 0f       	add	r26, r26
     6b0:	bb 1f       	adc	r27, r27
     6b2:	a0 50       	subi	r26, 0x00	; 0
     6b4:	be 4f       	sbci	r27, 0xFE	; 254
     6b6:	21 e0       	ldi	r18, 0x01	; 1
     6b8:	30 e0       	ldi	r19, 0x00	; 0
     6ba:	c9 01       	movw	r24, r18
     6bc:	0c 90       	ld	r0, X
     6be:	02 c0       	rjmp	.+4      	; 0x6c4 <_Z12digitalWritehh+0x2b4>
     6c0:	88 0f       	add	r24, r24
     6c2:	99 1f       	adc	r25, r25
     6c4:	0a 94       	dec	r0
     6c6:	e2 f7       	brpl	.-8      	; 0x6c0 <_Z12digitalWritehh+0x2b0>
     6c8:	84 2b       	or	r24, r20
     6ca:	80 83       	st	Z, r24
			           break;
     6cc:	08 95       	ret
				     case'l':
	                  PORTL|=(1<<c[pInno]);
     6ce:	eb e0       	ldi	r30, 0x0B	; 11
     6d0:	f1 e0       	ldi	r31, 0x01	; 1
     6d2:	40 81       	ld	r20, Z
     6d4:	dc 01       	movw	r26, r24
     6d6:	aa 0f       	add	r26, r26
     6d8:	bb 1f       	adc	r27, r27
     6da:	a0 50       	subi	r26, 0x00	; 0
     6dc:	be 4f       	sbci	r27, 0xFE	; 254
     6de:	21 e0       	ldi	r18, 0x01	; 1
     6e0:	30 e0       	ldi	r19, 0x00	; 0
     6e2:	c9 01       	movw	r24, r18
     6e4:	0c 90       	ld	r0, X
     6e6:	02 c0       	rjmp	.+4      	; 0x6ec <_Z12digitalWritehh+0x2dc>
     6e8:	88 0f       	add	r24, r24
     6ea:	99 1f       	adc	r25, r25
     6ec:	0a 94       	dec	r0
     6ee:	e2 f7       	brpl	.-8      	; 0x6e8 <_Z12digitalWritehh+0x2d8>
     6f0:	84 2b       	or	r24, r20
     6f2:	80 83       	st	Z, r24
     6f4:	08 95       	ret

000006f6 <_Z11digitalReadh>:

uint8_t digitalRead(uint8_t pInno)
{
	uint8_t z;				//not a good practice
	uint8_t x;				//not a good practice
   switch(d[pInno])
     6f6:	28 e7       	ldi	r18, 0x78	; 120
     6f8:	32 e0       	ldi	r19, 0x02	; 2
     6fa:	28 0f       	add	r18, r24
     6fc:	31 1d       	adc	r19, r1
     6fe:	f9 01       	movw	r30, r18
     700:	80 81       	ld	r24, Z
     702:	85 36       	cpi	r24, 0x65	; 101
     704:	d9 f0       	breq	.+54     	; 0x73c <_Z11digitalReadh+0x46>
     706:	86 36       	cpi	r24, 0x66	; 102
     708:	38 f4       	brcc	.+14     	; 0x718 <_Z11digitalReadh+0x22>
     70a:	83 36       	cpi	r24, 0x63	; 99
     70c:	99 f0       	breq	.+38     	; 0x734 <_Z11digitalReadh+0x3e>
     70e:	84 36       	cpi	r24, 0x64	; 100
     710:	98 f4       	brcc	.+38     	; 0x738 <_Z11digitalReadh+0x42>
     712:	82 36       	cpi	r24, 0x62	; 98
     714:	f9 f4       	brne	.+62     	; 0x754 <_Z11digitalReadh+0x5e>
     716:	0c c0       	rjmp	.+24     	; 0x730 <_Z11digitalReadh+0x3a>
     718:	88 36       	cpi	r24, 0x68	; 104
     71a:	a1 f0       	breq	.+40     	; 0x744 <_Z11digitalReadh+0x4e>
     71c:	89 36       	cpi	r24, 0x69	; 105
     71e:	18 f4       	brcc	.+6      	; 0x726 <_Z11digitalReadh+0x30>
     720:	87 36       	cpi	r24, 0x67	; 103
     722:	c1 f4       	brne	.+48     	; 0x754 <_Z11digitalReadh+0x5e>
     724:	0d c0       	rjmp	.+26     	; 0x740 <_Z11digitalReadh+0x4a>
     726:	8a 36       	cpi	r24, 0x6A	; 106
     728:	81 f0       	breq	.+32     	; 0x74a <_Z11digitalReadh+0x54>
     72a:	8c 36       	cpi	r24, 0x6C	; 108
     72c:	99 f4       	brne	.+38     	; 0x754 <_Z11digitalReadh+0x5e>
     72e:	10 c0       	rjmp	.+32     	; 0x750 <_Z11digitalReadh+0x5a>
         {

	          case'b':
	                  z=PINB&(1<<c[pInno]);
     730:	83 b1       	in	r24, 0x03	; 3
			           break;
     732:	08 95       	ret
	          case'c':
	                  z=PINC&(1<<c[pInno]);
     734:	86 b1       	in	r24, 0x06	; 6
			          break;
     736:	08 95       	ret
	          case'd':
	                  z=PIND&(1<<c[pInno]);
     738:	89 b1       	in	r24, 0x09	; 9
			          break;
     73a:	08 95       	ret

		      case'e':
	                   z=PINE&(1<<c[pInno]);
     73c:	8c b1       	in	r24, 0x0c	; 12
			           break;
     73e:	08 95       	ret

			     case'g':
	                   z=PING&(1<<c[pInno]);
     740:	82 b3       	in	r24, 0x12	; 18
			           break;
     742:	08 95       	ret
			 case'h':
	                  z=PINH&(1<<c[pInno]);
     744:	80 91 00 01 	lds	r24, 0x0100
			           break;
     748:	08 95       	ret

			     case'j':
	                   z=PINJ&(1<<c[pInno]);
     74a:	80 91 03 01 	lds	r24, 0x0103
			           break;
     74e:	08 95       	ret
				     case'l':
	                   z=PINL&(1<<c[pInno]);
     750:	80 91 09 01 	lds	r24, 0x0109
			           break;
					   return z;
	     }
}
     754:	08 95       	ret

00000756 <_Z20microsecondsToInchesm>:
{
  // According to Parallax's datasheet for the PING))), there are 73.746
  // microseconds per inch (i.e. sound travels at 1130 feet per second).
  // This gives the distance travelled by the ping, outbound and return,
  // so we divide by 2 to get the distance of the obstacle.
  return (mIcroseconds*0.00669/ 2);
     756:	0e 94 fe 08 	call	0x11fc	; 0x11fc <__floatunsisf>
     75a:	2a ec       	ldi	r18, 0xCA	; 202
     75c:	37 e3       	ldi	r19, 0x37	; 55
     75e:	4b ed       	ldi	r20, 0xDB	; 219
     760:	5b e3       	ldi	r21, 0x3B	; 59
     762:	0e 94 64 09 	call	0x12c8	; 0x12c8 <__mulsf3>
     766:	20 e0       	ldi	r18, 0x00	; 0
     768:	30 e0       	ldi	r19, 0x00	; 0
     76a:	40 e0       	ldi	r20, 0x00	; 0
     76c:	5f e3       	ldi	r21, 0x3F	; 63
     76e:	0e 94 64 09 	call	0x12c8	; 0x12c8 <__mulsf3>
     772:	0e 94 d2 08 	call	0x11a4	; 0x11a4 <__fixunssfsi>
}
     776:	08 95       	ret

00000778 <_Z25microsecondsToCentimetersm>:
long unsigned int microsecondsToCentimeters(long unsigned int microseconds)
{
  // The speed of sound is 340 m/s or 29 microseconds per centimeter.
  // The ping travels out and back, so to find the distance of the object we
  // take half of the distance travelled.
  return (microseconds*0.17/ 2);
     778:	0e 94 fe 08 	call	0x11fc	; 0x11fc <__floatunsisf>
     77c:	2b e7       	ldi	r18, 0x7B	; 123
     77e:	34 e1       	ldi	r19, 0x14	; 20
     780:	4e e2       	ldi	r20, 0x2E	; 46
     782:	5e e3       	ldi	r21, 0x3E	; 62
     784:	0e 94 64 09 	call	0x12c8	; 0x12c8 <__mulsf3>
     788:	20 e0       	ldi	r18, 0x00	; 0
     78a:	30 e0       	ldi	r19, 0x00	; 0
     78c:	40 e0       	ldi	r20, 0x00	; 0
     78e:	5f e3       	ldi	r21, 0x3F	; 63
     790:	0e 94 64 09 	call	0x12c8	; 0x12c8 <__mulsf3>
     794:	0e 94 d2 08 	call	0x11a4	; 0x11a4 <__fixunssfsi>
}
     798:	08 95       	ret

0000079a <_Z7initADCv>:
Serial1 Serial1;
Serial2 Serial2;
Serial3 Serial3;
void initADC()
{
	ADMUX=(1<<REFS0);				//Aref=AVcc
     79a:	80 e4       	ldi	r24, 0x40	; 64
     79c:	80 93 7c 00 	sts	0x007C, r24
	ADCSRA=(1<<ADEN)|(1<<ADPS2)|(1<<ADPS1);		//ADC enabled, Prescaler 64
     7a0:	86 e8       	ldi	r24, 0x86	; 134
     7a2:	80 93 7a 00 	sts	0x007A, r24
}
     7a6:	08 95       	ret

000007a8 <_Z10analogReadi>:

int analogRead(int (pInno))
{
     7a8:	0f 93       	push	r16
     7aa:	1f 93       	push	r17
     7ac:	cf 93       	push	r28
     7ae:	df 93       	push	r29
     7b0:	8c 01       	movw	r16, r24
        //prescalar set to default
  	initADC();
     7b2:	0e 94 cd 03 	call	0x79a	; 0x79a <_Z7initADCv>
  	ADMUX=(1<<REFS0)|(0<<REFS1);
     7b6:	cc e7       	ldi	r28, 0x7C	; 124
     7b8:	d0 e0       	ldi	r29, 0x00	; 0
     7ba:	80 e4       	ldi	r24, 0x40	; 64
     7bc:	88 83       	st	Y, r24
  	ADCSRA|=(1<<ADEN);
     7be:	ea e7       	ldi	r30, 0x7A	; 122
     7c0:	f0 e0       	ldi	r31, 0x00	; 0
     7c2:	80 81       	ld	r24, Z
     7c4:	80 68       	ori	r24, 0x80	; 128
     7c6:	80 83       	st	Z, r24
    ADMUX|=(pInno%8);//chose value from 0 to 7 to chose adc pin accordingly
     7c8:	28 81       	ld	r18, Y
     7ca:	c8 01       	movw	r24, r16
     7cc:	68 e0       	ldi	r22, 0x08	; 8
     7ce:	70 e0       	ldi	r23, 0x00	; 0
     7d0:	0e 94 0e 0a 	call	0x141c	; 0x141c <__divmodhi4>
     7d4:	28 2b       	or	r18, r24
     7d6:	28 83       	st	Y, r18
    ADCSRA|=(1<<ADEN);
     7d8:	80 81       	ld	r24, Z
     7da:	80 68       	ori	r24, 0x80	; 128
     7dc:	80 83       	st	Z, r24
    ADCSRA|=(1<<ADSC);
     7de:	80 81       	ld	r24, Z
     7e0:	80 64       	ori	r24, 0x40	; 64
     7e2:	80 83       	st	Z, r24
	while(ADCSRA&(1<<ADSC));
     7e4:	80 81       	ld	r24, Z
     7e6:	86 fd       	sbrc	r24, 6
     7e8:	fd cf       	rjmp	.-6      	; 0x7e4 <_Z10analogReadi+0x3c>
	return (ADC);
     7ea:	20 91 78 00 	lds	r18, 0x0078
     7ee:	30 91 79 00 	lds	r19, 0x0079
}
     7f2:	82 2f       	mov	r24, r18
     7f4:	93 2f       	mov	r25, r19
     7f6:	df 91       	pop	r29
     7f8:	cf 91       	pop	r28
     7fa:	1f 91       	pop	r17
     7fc:	0f 91       	pop	r16
     7fe:	08 95       	ret

00000800 <_Z11analogWritehh>:

void analogWrite(uint8_t pInno,uint8_t dUtycY)
{
  switch(pInno)
     800:	89 30       	cpi	r24, 0x09	; 9
     802:	09 f4       	brne	.+2      	; 0x806 <_Z11analogWritehh+0x6>
     804:	4d c0       	rjmp	.+154    	; 0x8a0 <_Z11analogWritehh+0xa0>
     806:	8a 30       	cpi	r24, 0x0A	; 10
     808:	98 f4       	brcc	.+38     	; 0x830 <_Z11analogWritehh+0x30>
     80a:	85 30       	cpi	r24, 0x05	; 5
     80c:	09 f4       	brne	.+2      	; 0x810 <_Z11analogWritehh+0x10>
     80e:	56 c0       	rjmp	.+172    	; 0x8bc <_Z11analogWritehh+0xbc>
     810:	86 30       	cpi	r24, 0x06	; 6
     812:	38 f4       	brcc	.+14     	; 0x822 <_Z11analogWritehh+0x22>
     814:	82 30       	cpi	r24, 0x02	; 2
     816:	09 f4       	brne	.+2      	; 0x81a <_Z11analogWritehh+0x1a>
     818:	5e c0       	rjmp	.+188    	; 0x8d6 <_Z11analogWritehh+0xd6>
     81a:	84 30       	cpi	r24, 0x04	; 4
     81c:	09 f0       	breq	.+2      	; 0x820 <_Z11analogWritehh+0x20>
     81e:	b9 c0       	rjmp	.+370    	; 0x992 <_Z11analogWritehh+0x192>
     820:	90 c0       	rjmp	.+288    	; 0x942 <_Z11analogWritehh+0x142>
     822:	86 30       	cpi	r24, 0x06	; 6
     824:	09 f4       	brne	.+2      	; 0x828 <_Z11analogWritehh+0x28>
     826:	94 c0       	rjmp	.+296    	; 0x950 <_Z11analogWritehh+0x150>
     828:	87 30       	cpi	r24, 0x07	; 7
     82a:	09 f0       	breq	.+2      	; 0x82e <_Z11analogWritehh+0x2e>
     82c:	b2 c0       	rjmp	.+356    	; 0x992 <_Z11analogWritehh+0x192>
     82e:	a1 c0       	rjmp	.+322    	; 0x972 <_Z11analogWritehh+0x172>
     830:	8c 30       	cpi	r24, 0x0C	; 12
     832:	f9 f0       	breq	.+62     	; 0x872 <_Z11analogWritehh+0x72>
     834:	8d 30       	cpi	r24, 0x0D	; 13
     836:	30 f4       	brcc	.+12     	; 0x844 <_Z11analogWritehh+0x44>
     838:	8a 30       	cpi	r24, 0x0A	; 10
     83a:	41 f1       	breq	.+80     	; 0x88c <_Z11analogWritehh+0x8c>
     83c:	8b 30       	cpi	r24, 0x0B	; 11
     83e:	09 f0       	breq	.+2      	; 0x842 <_Z11analogWritehh+0x42>
     840:	a8 c0       	rjmp	.+336    	; 0x992 <_Z11analogWritehh+0x192>
     842:	0a c0       	rjmp	.+20     	; 0x858 <_Z11analogWritehh+0x58>
     844:	8d 32       	cpi	r24, 0x2D	; 45
     846:	09 f4       	brne	.+2      	; 0x84a <_Z11analogWritehh+0x4a>
     848:	64 c0       	rjmp	.+200    	; 0x912 <_Z11analogWritehh+0x112>
     84a:	8e 32       	cpi	r24, 0x2E	; 46
     84c:	09 f4       	brne	.+2      	; 0x850 <_Z11analogWritehh+0x50>
     84e:	50 c0       	rjmp	.+160    	; 0x8f0 <_Z11analogWritehh+0xf0>
     850:	8d 30       	cpi	r24, 0x0D	; 13
     852:	09 f0       	breq	.+2      	; 0x856 <_Z11analogWritehh+0x56>
     854:	9e c0       	rjmp	.+316    	; 0x992 <_Z11analogWritehh+0x192>
     856:	6e c0       	rjmp	.+220    	; 0x934 <_Z11analogWritehh+0x134>
  {
	  case 11:
		   DDRB|=(1<<PB5);
     858:	25 9a       	sbi	0x04, 5	; 4
		   TCCR1A=(1<<WGM10)|(1<<WGM12)|(1<<COM1A1);
     85a:	89 e8       	ldi	r24, 0x89	; 137
     85c:	80 93 80 00 	sts	0x0080, r24
		   TCCR1B=(1<<CS11)|(1<<CS10);
     860:	83 e0       	ldi	r24, 0x03	; 3
     862:	80 93 81 00 	sts	0x0081, r24
		   OCR1A=dUtycY;
     866:	70 e0       	ldi	r23, 0x00	; 0
     868:	70 93 89 00 	sts	0x0089, r23
     86c:	60 93 88 00 	sts	0x0088, r22
		   break;
     870:	08 95       	ret
	  case 12:
		  DDRB|=(1<<PB6);
     872:	26 9a       	sbi	0x04, 6	; 4
		  TCCR1A=(1<<WGM10)|(1<<WGM12)|(1<<COM1B1);
     874:	89 e2       	ldi	r24, 0x29	; 41
     876:	80 93 80 00 	sts	0x0080, r24
		  TCCR1B=(1<<CS11)|(1<<CS10);
     87a:	83 e0       	ldi	r24, 0x03	; 3
     87c:	80 93 81 00 	sts	0x0081, r24
		  OCR1B=dUtycY;
     880:	70 e0       	ldi	r23, 0x00	; 0
     882:	70 93 8b 00 	sts	0x008B, r23
     886:	60 93 8a 00 	sts	0x008A, r22
		  break;
     88a:	08 95       	ret
	  case 10:
		  DDRB|=(1<<PB4);
     88c:	24 9a       	sbi	0x04, 4	; 4
		  TCCR2A=(1<<COM2A1)|(1<<WGM21)|(1<<WGM20);
     88e:	83 e8       	ldi	r24, 0x83	; 131
     890:	80 93 b0 00 	sts	0x00B0, r24
		  TCCR2B=(1<<CS20);
     894:	81 e0       	ldi	r24, 0x01	; 1
     896:	80 93 b1 00 	sts	0x00B1, r24
		  OCR2A=dUtycY;
     89a:	60 93 b3 00 	sts	0x00B3, r22
		  break;
     89e:	08 95       	ret
	  case 9:
		   DDRH|=(1<<PH6);
     8a0:	e1 e0       	ldi	r30, 0x01	; 1
     8a2:	f1 e0       	ldi	r31, 0x01	; 1
     8a4:	80 81       	ld	r24, Z
     8a6:	80 64       	ori	r24, 0x40	; 64
     8a8:	80 83       	st	Z, r24
		   TCCR2A=(1<<WGM21)|(1<<WGM20)|(1<<COM2B1);
     8aa:	83 e2       	ldi	r24, 0x23	; 35
     8ac:	80 93 b0 00 	sts	0x00B0, r24
		   TCCR2B=(1<<CS20);
     8b0:	81 e0       	ldi	r24, 0x01	; 1
     8b2:	80 93 b1 00 	sts	0x00B1, r24
		   OCR2B=dUtycY;
     8b6:	60 93 b4 00 	sts	0x00B4, r22
		   break;
     8ba:	08 95       	ret
	  case 5:
		  DDRE|=(1<<PE3);
     8bc:	6b 9a       	sbi	0x0d, 3	; 13
		  TCCR3A=(1<<WGM32)|(1<<WGM30)|(1<<COM3A1);
     8be:	89 e8       	ldi	r24, 0x89	; 137
     8c0:	80 93 90 00 	sts	0x0090, r24
		  TCCR3B=(1<<CS30);
     8c4:	81 e0       	ldi	r24, 0x01	; 1
     8c6:	80 93 91 00 	sts	0x0091, r24
		  OCR3A=dUtycY;
     8ca:	70 e0       	ldi	r23, 0x00	; 0
     8cc:	70 93 99 00 	sts	0x0099, r23
     8d0:	60 93 98 00 	sts	0x0098, r22
		  break;
     8d4:	08 95       	ret
	  case 2:
	  	  DDRE|=(1<<PE4);	
     8d6:	6c 9a       	sbi	0x0d, 4	; 13
		  TCCR3A=(1<<WGM32)|(1<<WGM30)|(1<<COM3B1);
     8d8:	89 e2       	ldi	r24, 0x29	; 41
     8da:	80 93 90 00 	sts	0x0090, r24
		  TCCR3B=(1<<CS30);
     8de:	81 e0       	ldi	r24, 0x01	; 1
     8e0:	80 93 91 00 	sts	0x0091, r24
		  OCR3B=dUtycY;
     8e4:	70 e0       	ldi	r23, 0x00	; 0
     8e6:	70 93 9b 00 	sts	0x009B, r23
     8ea:	60 93 9a 00 	sts	0x009A, r22
		  break;
     8ee:	08 95       	ret
	  case 46:
		  DDRL|=(1<<PL3);
     8f0:	ea e0       	ldi	r30, 0x0A	; 10
     8f2:	f1 e0       	ldi	r31, 0x01	; 1
     8f4:	80 81       	ld	r24, Z
     8f6:	88 60       	ori	r24, 0x08	; 8
     8f8:	80 83       	st	Z, r24
		  TCCR5A=(1<<WGM52)|(1<<WGM50)|(1<<COM5A1);
     8fa:	89 e8       	ldi	r24, 0x89	; 137
     8fc:	80 93 20 01 	sts	0x0120, r24
		  TCCR5B=(1<<CS50);
     900:	81 e0       	ldi	r24, 0x01	; 1
     902:	80 93 21 01 	sts	0x0121, r24
		  OCR5A=dUtycY;
     906:	70 e0       	ldi	r23, 0x00	; 0
     908:	70 93 29 01 	sts	0x0129, r23
     90c:	60 93 28 01 	sts	0x0128, r22
		  break;
     910:	08 95       	ret
	  case 45:
		  DDRL|=(1<<PL4);
     912:	ea e0       	ldi	r30, 0x0A	; 10
     914:	f1 e0       	ldi	r31, 0x01	; 1
     916:	80 81       	ld	r24, Z
     918:	80 61       	ori	r24, 0x10	; 16
     91a:	80 83       	st	Z, r24
		  TCCR5A=(1<<WGM52)|(1<<WGM50)|(1<<COM5B1);
     91c:	89 e2       	ldi	r24, 0x29	; 41
     91e:	80 93 20 01 	sts	0x0120, r24
		  TCCR5B=(1<<CS50);
     922:	81 e0       	ldi	r24, 0x01	; 1
     924:	80 93 21 01 	sts	0x0121, r24
		  OCR5B=dUtycY;
     928:	70 e0       	ldi	r23, 0x00	; 0
     92a:	70 93 2b 01 	sts	0x012B, r23
     92e:	60 93 2a 01 	sts	0x012A, r22
		  break;
     932:	08 95       	ret
	  case 13:
		  DDRB|=(1<<PB7);
     934:	27 9a       	sbi	0x04, 7	; 4
		  TCCR0A=(1<<WGM10)|(1<<WGM00)|(1<<COM0A1);
     936:	81 e8       	ldi	r24, 0x81	; 129
     938:	84 bd       	out	0x24, r24	; 36
		  TCCR0B=(1<<CS00);
     93a:	81 e0       	ldi	r24, 0x01	; 1
     93c:	85 bd       	out	0x25, r24	; 37
		  OCR0A=dUtycY;
     93e:	67 bd       	out	0x27, r22	; 39
		  break;
     940:	08 95       	ret
	  case 4:
	  	DDRG|=(1<<PG5);
     942:	9d 9a       	sbi	0x13, 5	; 19
		TCCR0A=(1<<WGM10)|(1<<WGM00)|(1<<COM0B1);
     944:	81 e2       	ldi	r24, 0x21	; 33
     946:	84 bd       	out	0x24, r24	; 36
		TCCR0B=(1<<CS00);
     948:	81 e0       	ldi	r24, 0x01	; 1
     94a:	85 bd       	out	0x25, r24	; 37
		OCR0B=dUtycY;
     94c:	68 bd       	out	0x28, r22	; 40
		break;
     94e:	08 95       	ret

	  case 6:
		  DDRH|=(1<<PH3);
     950:	e1 e0       	ldi	r30, 0x01	; 1
     952:	f1 e0       	ldi	r31, 0x01	; 1
     954:	80 81       	ld	r24, Z
     956:	88 60       	ori	r24, 0x08	; 8
     958:	80 83       	st	Z, r24
		  TCCR4A=(1<<WGM42)|(1<<WGM40)|(1<<COM4A1);
     95a:	89 e8       	ldi	r24, 0x89	; 137
     95c:	80 93 a0 00 	sts	0x00A0, r24
		  TCCR4B=(1<<CS40);
     960:	81 e0       	ldi	r24, 0x01	; 1
     962:	80 93 a1 00 	sts	0x00A1, r24
		  OCR4A=dUtycY;
     966:	70 e0       	ldi	r23, 0x00	; 0
     968:	70 93 a9 00 	sts	0x00A9, r23
     96c:	60 93 a8 00 	sts	0x00A8, r22
		  break;
     970:	08 95       	ret
	  case 7:
		  
		  DDRH|=(1<<PH4);
     972:	e1 e0       	ldi	r30, 0x01	; 1
     974:	f1 e0       	ldi	r31, 0x01	; 1
     976:	80 81       	ld	r24, Z
     978:	80 61       	ori	r24, 0x10	; 16
     97a:	80 83       	st	Z, r24
		TCCR4A=(1<<WGM42)|(1<<WGM40)|(1<<COM4B1);
     97c:	89 e2       	ldi	r24, 0x29	; 41
     97e:	80 93 a0 00 	sts	0x00A0, r24
		  TCCR4B=(1<<CS40);
     982:	81 e0       	ldi	r24, 0x01	; 1
     984:	80 93 a1 00 	sts	0x00A1, r24
		  OCR4B=dUtycY;
     988:	70 e0       	ldi	r23, 0x00	; 0
     98a:	70 93 ab 00 	sts	0x00AB, r23
     98e:	60 93 aa 00 	sts	0x00AA, r22
     992:	08 95       	ret

00000994 <_Z6millisv>:
    return 1;
}

static __inline__ uint8_t __iCliRetVal(void)
{
    cli();
     994:	f8 94       	cli
{
    unsigned long millis_return;

    // Ensure this cannot be disrupted
    ATOMIC_BLOCK(ATOMIC_FORCEON) {
        millis_return = tImer2_millis;
     996:	20 91 be 02 	lds	r18, 0x02BE
     99a:	30 91 bf 02 	lds	r19, 0x02BF
     99e:	40 91 c0 02 	lds	r20, 0x02C0
     9a2:	50 91 c1 02 	lds	r21, 0x02C1
    return 1;
}

static __inline__ void __iSeiParam(const uint8_t *__s)
{
    sei();
     9a6:	78 94       	sei
    }

    return millis_return;
}
     9a8:	62 2f       	mov	r22, r18
     9aa:	73 2f       	mov	r23, r19
     9ac:	84 2f       	mov	r24, r20
     9ae:	95 2f       	mov	r25, r21
     9b0:	08 95       	ret

000009b2 <__vector_13>:

ISR (TIMER2_COMPA_vect)
{
     9b2:	1f 92       	push	r1
     9b4:	0f 92       	push	r0
     9b6:	0f b6       	in	r0, 0x3f	; 63
     9b8:	0f 92       	push	r0
     9ba:	11 24       	eor	r1, r1
     9bc:	8f 93       	push	r24
     9be:	9f 93       	push	r25
     9c0:	af 93       	push	r26
     9c2:	bf 93       	push	r27
    tImer2_millis++;
     9c4:	80 91 be 02 	lds	r24, 0x02BE
     9c8:	90 91 bf 02 	lds	r25, 0x02BF
     9cc:	a0 91 c0 02 	lds	r26, 0x02C0
     9d0:	b0 91 c1 02 	lds	r27, 0x02C1
     9d4:	01 96       	adiw	r24, 0x01	; 1
     9d6:	a1 1d       	adc	r26, r1
     9d8:	b1 1d       	adc	r27, r1
     9da:	80 93 be 02 	sts	0x02BE, r24
     9de:	90 93 bf 02 	sts	0x02BF, r25
     9e2:	a0 93 c0 02 	sts	0x02C0, r26
     9e6:	b0 93 c1 02 	sts	0x02C1, r27
}
     9ea:	bf 91       	pop	r27
     9ec:	af 91       	pop	r26
     9ee:	9f 91       	pop	r25
     9f0:	8f 91       	pop	r24
     9f2:	0f 90       	pop	r0
     9f4:	0f be       	out	0x3f, r0	; 63
     9f6:	0f 90       	pop	r0
     9f8:	1f 90       	pop	r1
     9fa:	18 95       	reti

000009fc <_Z5tinitv>:

void tinit()
{
	TCCR2B |= (1 << WGM22) | (1 << CS21);
     9fc:	e1 eb       	ldi	r30, 0xB1	; 177
     9fe:	f0 e0       	ldi	r31, 0x00	; 0
     a00:	80 81       	ld	r24, Z
     a02:	8a 60       	ori	r24, 0x0A	; 10
     a04:	80 83       	st	Z, r24

    // Load the high byte, then the low byte
    // into the output compare
    OCR2A = CTC_MATCH_OVERFLOW;
     a06:	8d e7       	ldi	r24, 0x7D	; 125
     a08:	80 93 b3 00 	sts	0x00B3, r24

    // Enable the compare match interrupt
    TIMSK2 |= (1 << OCIE2A);
     a0c:	e0 e7       	ldi	r30, 0x70	; 112
     a0e:	f0 e0       	ldi	r31, 0x00	; 0
     a10:	80 81       	ld	r24, Z
     a12:	82 60       	ori	r24, 0x02	; 2
     a14:	80 83       	st	Z, r24

    // Now enable global interrupts
    sei();
     a16:	78 94       	sei
}
     a18:	08 95       	ret

00000a1a <_Z5delaym>:


void delay(unsigned long mIllisec)
{
     a1a:	9b 01       	movw	r18, r22
     a1c:	ac 01       	movw	r20, r24
	int i;
	for(i=0;i<mIllisec;i++)
     a1e:	61 15       	cp	r22, r1
     a20:	71 05       	cpc	r23, r1
     a22:	81 05       	cpc	r24, r1
     a24:	91 05       	cpc	r25, r1
     a26:	a1 f0       	breq	.+40     	; 0xa50 <_Z5delaym+0x36>
     a28:	60 e0       	ldi	r22, 0x00	; 0
     a2a:	70 e0       	ldi	r23, 0x00	; 0
	#else
		//round up by default
		__ticks_dc = (uint32_t)(ceil(fabs(__tmp)));
	#endif

	__builtin_avr_delay_cycles(__ticks_dc);
     a2c:	89 ef       	ldi	r24, 0xF9	; 249
     a2e:	90 e0       	ldi	r25, 0x00	; 0
     a30:	01 97       	sbiw	r24, 0x01	; 1
     a32:	f1 f7       	brne	.-4      	; 0xa30 <_Z5delaym+0x16>
     a34:	00 c0       	rjmp	.+0      	; 0xa36 <_Z5delaym+0x1c>
     a36:	00 00       	nop
     a38:	6f 5f       	subi	r22, 0xFF	; 255
     a3a:	7f 4f       	sbci	r23, 0xFF	; 255
     a3c:	cb 01       	movw	r24, r22
     a3e:	aa 27       	eor	r26, r26
     a40:	97 fd       	sbrc	r25, 7
     a42:	a0 95       	com	r26
     a44:	ba 2f       	mov	r27, r26
     a46:	82 17       	cp	r24, r18
     a48:	93 07       	cpc	r25, r19
     a4a:	a4 07       	cpc	r26, r20
     a4c:	b5 07       	cpc	r27, r21
     a4e:	70 f3       	brcs	.-36     	; 0xa2c <_Z5delaym+0x12>
     a50:	08 95       	ret

00000a52 <_Z17delayMicrosecondsm>:
	}
	return;
}

void delayMicroseconds(unsigned long mIcrosec)
{
     a52:	9b 01       	movw	r18, r22
     a54:	ac 01       	movw	r20, r24
	int i;
	for(i=0;i<mIcrosec;i++)
     a56:	61 15       	cp	r22, r1
     a58:	71 05       	cpc	r23, r1
     a5a:	81 05       	cpc	r24, r1
     a5c:	91 05       	cpc	r25, r1
     a5e:	79 f0       	breq	.+30     	; 0xa7e <_Z17delayMicrosecondsm+0x2c>
     a60:	60 e0       	ldi	r22, 0x00	; 0
     a62:	70 e0       	ldi	r23, 0x00	; 0
	#else
		//round up by default
		__ticks_dc = (uint32_t)(ceil(fabs(__tmp)));
	#endif

	__builtin_avr_delay_cycles(__ticks_dc);
     a64:	00 00       	nop
     a66:	6f 5f       	subi	r22, 0xFF	; 255
     a68:	7f 4f       	sbci	r23, 0xFF	; 255
     a6a:	cb 01       	movw	r24, r22
     a6c:	aa 27       	eor	r26, r26
     a6e:	97 fd       	sbrc	r25, 7
     a70:	a0 95       	com	r26
     a72:	ba 2f       	mov	r27, r26
     a74:	82 17       	cp	r24, r18
     a76:	93 07       	cpc	r25, r19
     a78:	a4 07       	cpc	r26, r20
     a7a:	b5 07       	cpc	r27, r21
     a7c:	98 f3       	brcs	.-26     	; 0xa64 <_Z17delayMicrosecondsm+0x12>
     a7e:	08 95       	ret

00000a80 <_Z3maplllll>:
	}
	return;
}

long map(long x, long in_min, long in_max, long out_min, long out_max)
{
     a80:	2f 92       	push	r2
     a82:	3f 92       	push	r3
     a84:	4f 92       	push	r4
     a86:	5f 92       	push	r5
     a88:	6f 92       	push	r6
     a8a:	7f 92       	push	r7
     a8c:	8f 92       	push	r8
     a8e:	9f 92       	push	r9
     a90:	af 92       	push	r10
     a92:	bf 92       	push	r11
     a94:	cf 92       	push	r12
     a96:	df 92       	push	r13
     a98:	ef 92       	push	r14
     a9a:	ff 92       	push	r15
     a9c:	0f 93       	push	r16
     a9e:	1f 93       	push	r17
     aa0:	df 93       	push	r29
     aa2:	cf 93       	push	r28
     aa4:	cd b7       	in	r28, 0x3d	; 61
     aa6:	de b7       	in	r29, 0x3e	; 62
     aa8:	dc 01       	movw	r26, r24
     aaa:	cb 01       	movw	r24, r22
     aac:	39 01       	movw	r6, r18
     aae:	4a 01       	movw	r8, r20
     ab0:	17 01       	movw	r2, r14
     ab2:	28 01       	movw	r4, r16
  return (x - in_min) * (out_max - out_min) / (in_max - in_min) + out_min;
     ab4:	ee 88       	ldd	r14, Y+22	; 0x16
     ab6:	ff 88       	ldd	r15, Y+23	; 0x17
     ab8:	08 8d       	ldd	r16, Y+24	; 0x18
     aba:	19 8d       	ldd	r17, Y+25	; 0x19
     abc:	ea 18       	sub	r14, r10
     abe:	fb 08       	sbc	r15, r11
     ac0:	0c 09       	sbc	r16, r12
     ac2:	1d 09       	sbc	r17, r13
     ac4:	9c 01       	movw	r18, r24
     ac6:	ad 01       	movw	r20, r26
     ac8:	26 19       	sub	r18, r6
     aca:	37 09       	sbc	r19, r7
     acc:	48 09       	sbc	r20, r8
     ace:	59 09       	sbc	r21, r9
     ad0:	c8 01       	movw	r24, r16
     ad2:	b7 01       	movw	r22, r14
     ad4:	0e 94 ef 09 	call	0x13de	; 0x13de <__mulsi3>
     ad8:	a2 01       	movw	r20, r4
     ada:	91 01       	movw	r18, r2
     adc:	26 19       	sub	r18, r6
     ade:	37 09       	sbc	r19, r7
     ae0:	48 09       	sbc	r20, r8
     ae2:	59 09       	sbc	r21, r9
     ae4:	0e 94 21 0a 	call	0x1442	; 0x1442 <__divmodsi4>
     ae8:	2a 0d       	add	r18, r10
     aea:	3b 1d       	adc	r19, r11
     aec:	4c 1d       	adc	r20, r12
     aee:	5d 1d       	adc	r21, r13
}
     af0:	62 2f       	mov	r22, r18
     af2:	73 2f       	mov	r23, r19
     af4:	84 2f       	mov	r24, r20
     af6:	95 2f       	mov	r25, r21
     af8:	cf 91       	pop	r28
     afa:	df 91       	pop	r29
     afc:	1f 91       	pop	r17
     afe:	0f 91       	pop	r16
     b00:	ff 90       	pop	r15
     b02:	ef 90       	pop	r14
     b04:	df 90       	pop	r13
     b06:	cf 90       	pop	r12
     b08:	bf 90       	pop	r11
     b0a:	af 90       	pop	r10
     b0c:	9f 90       	pop	r9
     b0e:	8f 90       	pop	r8
     b10:	7f 90       	pop	r7
     b12:	6f 90       	pop	r6
     b14:	5f 90       	pop	r5
     b16:	4f 90       	pop	r4
     b18:	3f 90       	pop	r3
     b1a:	2f 90       	pop	r2
     b1c:	08 95       	ret

00000b1e <_Z9constrainlll>:

long constrain(long nUm, long lOwer, long uPper)
{
     b1e:	ef 92       	push	r14
     b20:	ff 92       	push	r15
     b22:	0f 93       	push	r16
     b24:	1f 93       	push	r17
     b26:	dc 01       	movw	r26, r24
     b28:	cb 01       	movw	r24, r22
	if(nUm>uPper){
     b2a:	e8 16       	cp	r14, r24
     b2c:	f9 06       	cpc	r15, r25
     b2e:	0a 07       	cpc	r16, r26
     b30:	1b 07       	cpc	r17, r27
     b32:	5c f0       	brlt	.+22     	; 0xb4a <_Z9constrainlll+0x2c>
     b34:	e2 2e       	mov	r14, r18
     b36:	f3 2e       	mov	r15, r19
     b38:	04 2f       	mov	r16, r20
     b3a:	15 2f       	mov	r17, r21
     b3c:	e8 16       	cp	r14, r24
     b3e:	f9 06       	cpc	r15, r25
     b40:	0a 07       	cpc	r16, r26
     b42:	1b 07       	cpc	r17, r27
     b44:	14 f4       	brge	.+4      	; 0xb4a <_Z9constrainlll+0x2c>
     b46:	7c 01       	movw	r14, r24
     b48:	8d 01       	movw	r16, r26
    else if(nUm<lOwer){
      return lOwer;
  	}
    else 
    return nUm;
}
     b4a:	6e 2d       	mov	r22, r14
     b4c:	7f 2d       	mov	r23, r15
     b4e:	80 2f       	mov	r24, r16
     b50:	91 2f       	mov	r25, r17
     b52:	1f 91       	pop	r17
     b54:	0f 91       	pop	r16
     b56:	ff 90       	pop	r15
     b58:	ef 90       	pop	r14
     b5a:	08 95       	ret

00000b5c <_Z15attachIntteruptiPFvvEi>:
void attachIntterupt(int pIn, void (*iSrfunc)(void), int cOmpare)		//cOmpare:LOW=0,HIGH1,RISING=2,FALLING=3
{
	sei();
     b5c:	78 94       	sei
	cAllisr=iSrfunc;
     b5e:	70 93 c3 02 	sts	0x02C3, r23
     b62:	60 93 c2 02 	sts	0x02C2, r22
	switch(pIn)	  //enabling interrupt pin
     b66:	83 30       	cpi	r24, 0x03	; 3
     b68:	91 05       	cpc	r25, r1
     b6a:	09 f4       	brne	.+2      	; 0xb6e <_Z15attachIntteruptiPFvvEi+0x12>
     b6c:	7d c0       	rjmp	.+250    	; 0xc68 <_Z15attachIntteruptiPFvvEi+0x10c>
     b6e:	84 30       	cpi	r24, 0x04	; 4
     b70:	91 05       	cpc	r25, r1
     b72:	54 f4       	brge	.+20     	; 0xb88 <_Z15attachIntteruptiPFvvEi+0x2c>
     b74:	81 30       	cpi	r24, 0x01	; 1
     b76:	91 05       	cpc	r25, r1
     b78:	c9 f1       	breq	.+114    	; 0xbec <_Z15attachIntteruptiPFvvEi+0x90>
     b7a:	82 30       	cpi	r24, 0x02	; 2
     b7c:	91 05       	cpc	r25, r1
     b7e:	0c f0       	brlt	.+2      	; 0xb82 <_Z15attachIntteruptiPFvvEi+0x26>
     b80:	54 c0       	rjmp	.+168    	; 0xc2a <_Z15attachIntteruptiPFvvEi+0xce>
     b82:	00 97       	sbiw	r24, 0x00	; 0
     b84:	91 f0       	breq	.+36     	; 0xbaa <_Z15attachIntteruptiPFvvEi+0x4e>
     b86:	0b c1       	rjmp	.+534    	; 0xd9e <_Z15attachIntteruptiPFvvEi+0x242>
     b88:	85 30       	cpi	r24, 0x05	; 5
     b8a:	91 05       	cpc	r25, r1
     b8c:	09 f4       	brne	.+2      	; 0xb90 <_Z15attachIntteruptiPFvvEi+0x34>
     b8e:	aa c0       	rjmp	.+340    	; 0xce4 <_Z15attachIntteruptiPFvvEi+0x188>
     b90:	85 30       	cpi	r24, 0x05	; 5
     b92:	91 05       	cpc	r25, r1
     b94:	0c f4       	brge	.+2      	; 0xb98 <_Z15attachIntteruptiPFvvEi+0x3c>
     b96:	87 c0       	rjmp	.+270    	; 0xca6 <_Z15attachIntteruptiPFvvEi+0x14a>
     b98:	86 30       	cpi	r24, 0x06	; 6
     b9a:	91 05       	cpc	r25, r1
     b9c:	09 f4       	brne	.+2      	; 0xba0 <_Z15attachIntteruptiPFvvEi+0x44>
     b9e:	c1 c0       	rjmp	.+386    	; 0xd22 <_Z15attachIntteruptiPFvvEi+0x1c6>
     ba0:	87 30       	cpi	r24, 0x07	; 7
     ba2:	91 05       	cpc	r25, r1
     ba4:	09 f0       	breq	.+2      	; 0xba8 <_Z15attachIntteruptiPFvvEi+0x4c>
     ba6:	fb c0       	rjmp	.+502    	; 0xd9e <_Z15attachIntteruptiPFvvEi+0x242>
     ba8:	db c0       	rjmp	.+438    	; 0xd60 <_Z15attachIntteruptiPFvvEi+0x204>
	{
		case 0:
		EIMSK|=1<<INT0;
     baa:	e8 9a       	sbi	0x1d, 0	; 29
		switch(cOmpare){
     bac:	43 30       	cpi	r20, 0x03	; 3
     bae:	51 05       	cpc	r21, r1
     bb0:	61 f0       	breq	.+24     	; 0xbca <_Z15attachIntteruptiPFvvEi+0x6e>
     bb2:	44 30       	cpi	r20, 0x04	; 4
     bb4:	51 05       	cpc	r21, r1
     bb6:	79 f0       	breq	.+30     	; 0xbd6 <_Z15attachIntteruptiPFvvEi+0x7a>
     bb8:	42 30       	cpi	r20, 0x02	; 2
     bba:	51 05       	cpc	r21, r1
     bbc:	91 f4       	brne	.+36     	; 0xbe2 <_Z15attachIntteruptiPFvvEi+0x86>
			case 2:
			EICRA|=(1<<ISC00)|(1<<ISC01);
     bbe:	e9 e6       	ldi	r30, 0x69	; 105
     bc0:	f0 e0       	ldi	r31, 0x00	; 0
     bc2:	80 81       	ld	r24, Z
     bc4:	83 60       	ori	r24, 0x03	; 3
     bc6:	80 83       	st	Z, r24
			break;
     bc8:	08 95       	ret
			case 3:
			EICRA|=(0<<ISC00)|(1<<ISC01);
     bca:	e9 e6       	ldi	r30, 0x69	; 105
     bcc:	f0 e0       	ldi	r31, 0x00	; 0
     bce:	80 81       	ld	r24, Z
     bd0:	82 60       	ori	r24, 0x02	; 2
     bd2:	80 83       	st	Z, r24
			break;
     bd4:	08 95       	ret
			case 4:
			EICRA|=(1<<ISC00)|(0<<ISC01);
     bd6:	e9 e6       	ldi	r30, 0x69	; 105
     bd8:	f0 e0       	ldi	r31, 0x00	; 0
     bda:	80 81       	ld	r24, Z
     bdc:	81 60       	ori	r24, 0x01	; 1
     bde:	80 83       	st	Z, r24
			break;
     be0:	08 95       	ret
			default:
			EICRA|=(0<<ISC00)|(0<<ISC01);
     be2:	e9 e6       	ldi	r30, 0x69	; 105
     be4:	f0 e0       	ldi	r31, 0x00	; 0
     be6:	80 81       	ld	r24, Z
     be8:	80 83       	st	Z, r24
     bea:	08 95       	ret
		}
		break;

		case 1:
		EIMSK|=1<<INT1;
     bec:	e9 9a       	sbi	0x1d, 1	; 29
                switch(cOmpare)
     bee:	43 30       	cpi	r20, 0x03	; 3
     bf0:	51 05       	cpc	r21, r1
     bf2:	61 f0       	breq	.+24     	; 0xc0c <_Z15attachIntteruptiPFvvEi+0xb0>
     bf4:	44 30       	cpi	r20, 0x04	; 4
     bf6:	51 05       	cpc	r21, r1
     bf8:	69 f0       	breq	.+26     	; 0xc14 <_Z15attachIntteruptiPFvvEi+0xb8>
     bfa:	42 30       	cpi	r20, 0x02	; 2
     bfc:	51 05       	cpc	r21, r1
     bfe:	81 f4       	brne	.+32     	; 0xc20 <_Z15attachIntteruptiPFvvEi+0xc4>
		{
			case 2:
			EICRA|=(1<<ISC10)|(1<<ISC11);
     c00:	e9 e6       	ldi	r30, 0x69	; 105
     c02:	f0 e0       	ldi	r31, 0x00	; 0
     c04:	80 81       	ld	r24, Z
     c06:	8c 60       	ori	r24, 0x0C	; 12
     c08:	80 83       	st	Z, r24
			break;
     c0a:	08 95       	ret
			case 3:
			EICRA=(0<<ISC10)|(1<<ISC11);
     c0c:	88 e0       	ldi	r24, 0x08	; 8
     c0e:	80 93 69 00 	sts	0x0069, r24
			break;
     c12:	08 95       	ret
			case 4:
			EICRA|=(1<<ISC10)|(0<<ISC11);
     c14:	e9 e6       	ldi	r30, 0x69	; 105
     c16:	f0 e0       	ldi	r31, 0x00	; 0
     c18:	80 81       	ld	r24, Z
     c1a:	84 60       	ori	r24, 0x04	; 4
     c1c:	80 83       	st	Z, r24
			break;
     c1e:	08 95       	ret
			default:
			EICRA|=(0<<ISC10)|(0<<ISC11);
     c20:	e9 e6       	ldi	r30, 0x69	; 105
     c22:	f0 e0       	ldi	r31, 0x00	; 0
     c24:	80 81       	ld	r24, Z
     c26:	80 83       	st	Z, r24
     c28:	08 95       	ret
		}
		break;

		case 2:
		EIMSK|=1<<INT2;
     c2a:	ea 9a       	sbi	0x1d, 2	; 29
		switch(cOmpare)
     c2c:	43 30       	cpi	r20, 0x03	; 3
     c2e:	51 05       	cpc	r21, r1
     c30:	61 f0       	breq	.+24     	; 0xc4a <_Z15attachIntteruptiPFvvEi+0xee>
     c32:	44 30       	cpi	r20, 0x04	; 4
     c34:	51 05       	cpc	r21, r1
     c36:	69 f0       	breq	.+26     	; 0xc52 <_Z15attachIntteruptiPFvvEi+0xf6>
     c38:	42 30       	cpi	r20, 0x02	; 2
     c3a:	51 05       	cpc	r21, r1
     c3c:	81 f4       	brne	.+32     	; 0xc5e <_Z15attachIntteruptiPFvvEi+0x102>
		{
			case 2:
			EICRA|=(1<<ISC20)|(1<<ISC21);
     c3e:	e9 e6       	ldi	r30, 0x69	; 105
     c40:	f0 e0       	ldi	r31, 0x00	; 0
     c42:	80 81       	ld	r24, Z
     c44:	80 63       	ori	r24, 0x30	; 48
     c46:	80 83       	st	Z, r24
			break;
     c48:	08 95       	ret
			case 3:
			EICRA=(0<<ISC20)|(1<<ISC21);
     c4a:	80 e2       	ldi	r24, 0x20	; 32
     c4c:	80 93 69 00 	sts	0x0069, r24
			break;
     c50:	08 95       	ret
			case 4:
			EICRA|=(1<<ISC20)|(0<<ISC21);
     c52:	e9 e6       	ldi	r30, 0x69	; 105
     c54:	f0 e0       	ldi	r31, 0x00	; 0
     c56:	80 81       	ld	r24, Z
     c58:	80 61       	ori	r24, 0x10	; 16
     c5a:	80 83       	st	Z, r24
			break;
     c5c:	08 95       	ret
			default:
			EICRA|=(0<<ISC20)|(0<<ISC21);
     c5e:	e9 e6       	ldi	r30, 0x69	; 105
     c60:	f0 e0       	ldi	r31, 0x00	; 0
     c62:	80 81       	ld	r24, Z
     c64:	80 83       	st	Z, r24
     c66:	08 95       	ret
		}
		break;

		case 3:
		EIMSK|=1<<INT3;
     c68:	eb 9a       	sbi	0x1d, 3	; 29
		switch(cOmpare)
     c6a:	43 30       	cpi	r20, 0x03	; 3
     c6c:	51 05       	cpc	r21, r1
     c6e:	61 f0       	breq	.+24     	; 0xc88 <_Z15attachIntteruptiPFvvEi+0x12c>
     c70:	44 30       	cpi	r20, 0x04	; 4
     c72:	51 05       	cpc	r21, r1
     c74:	69 f0       	breq	.+26     	; 0xc90 <_Z15attachIntteruptiPFvvEi+0x134>
     c76:	42 30       	cpi	r20, 0x02	; 2
     c78:	51 05       	cpc	r21, r1
     c7a:	81 f4       	brne	.+32     	; 0xc9c <_Z15attachIntteruptiPFvvEi+0x140>
		{
			case 2:
			EICRA|=(1<<ISC30)|(1<<ISC31);
     c7c:	e9 e6       	ldi	r30, 0x69	; 105
     c7e:	f0 e0       	ldi	r31, 0x00	; 0
     c80:	80 81       	ld	r24, Z
     c82:	80 6c       	ori	r24, 0xC0	; 192
     c84:	80 83       	st	Z, r24
			break;
     c86:	08 95       	ret
			case 3:
			EICRA=(0<<ISC30)|(1<<ISC31);
     c88:	80 e8       	ldi	r24, 0x80	; 128
     c8a:	80 93 69 00 	sts	0x0069, r24
			break;
     c8e:	08 95       	ret
			case 4:
			EICRA|=(1<<ISC30)|(0<<ISC31);
     c90:	e9 e6       	ldi	r30, 0x69	; 105
     c92:	f0 e0       	ldi	r31, 0x00	; 0
     c94:	80 81       	ld	r24, Z
     c96:	80 64       	ori	r24, 0x40	; 64
     c98:	80 83       	st	Z, r24
			break;
     c9a:	08 95       	ret
			default:
			EICRA|=(0<<ISC30)|(0<<ISC31);
     c9c:	e9 e6       	ldi	r30, 0x69	; 105
     c9e:	f0 e0       	ldi	r31, 0x00	; 0
     ca0:	80 81       	ld	r24, Z
     ca2:	80 83       	st	Z, r24
     ca4:	08 95       	ret
		}
		break;

		case 4:
		EIMSK|=1<<INT4;
     ca6:	ec 9a       	sbi	0x1d, 4	; 29
                switch(cOmpare)
     ca8:	43 30       	cpi	r20, 0x03	; 3
     caa:	51 05       	cpc	r21, r1
     cac:	61 f0       	breq	.+24     	; 0xcc6 <_Z15attachIntteruptiPFvvEi+0x16a>
     cae:	44 30       	cpi	r20, 0x04	; 4
     cb0:	51 05       	cpc	r21, r1
     cb2:	69 f0       	breq	.+26     	; 0xcce <_Z15attachIntteruptiPFvvEi+0x172>
     cb4:	42 30       	cpi	r20, 0x02	; 2
     cb6:	51 05       	cpc	r21, r1
     cb8:	81 f4       	brne	.+32     	; 0xcda <_Z15attachIntteruptiPFvvEi+0x17e>
		{
			case 2:
			EICRB|=(1<<ISC40)|(1<<ISC41);
     cba:	ea e6       	ldi	r30, 0x6A	; 106
     cbc:	f0 e0       	ldi	r31, 0x00	; 0
     cbe:	80 81       	ld	r24, Z
     cc0:	83 60       	ori	r24, 0x03	; 3
     cc2:	80 83       	st	Z, r24
			break;
     cc4:	08 95       	ret
			case 3:
			EICRB=(0<<ISC40)|(1<<ISC41);
     cc6:	82 e0       	ldi	r24, 0x02	; 2
     cc8:	80 93 6a 00 	sts	0x006A, r24
			break;
     ccc:	08 95       	ret
			case 4:
			EICRB|=(1<<ISC40)|(0<<ISC41);
     cce:	ea e6       	ldi	r30, 0x6A	; 106
     cd0:	f0 e0       	ldi	r31, 0x00	; 0
     cd2:	80 81       	ld	r24, Z
     cd4:	81 60       	ori	r24, 0x01	; 1
     cd6:	80 83       	st	Z, r24
			break;
     cd8:	08 95       	ret
			default:
			EICRB|=(0<<ISC40)|(0<<ISC41);
     cda:	ea e6       	ldi	r30, 0x6A	; 106
     cdc:	f0 e0       	ldi	r31, 0x00	; 0
     cde:	80 81       	ld	r24, Z
     ce0:	80 83       	st	Z, r24
     ce2:	08 95       	ret
		}
		break;

		case 5:
		EIMSK|=1<<INT5;
     ce4:	ed 9a       	sbi	0x1d, 5	; 29
		switch(cOmpare)
     ce6:	43 30       	cpi	r20, 0x03	; 3
     ce8:	51 05       	cpc	r21, r1
     cea:	61 f0       	breq	.+24     	; 0xd04 <_Z15attachIntteruptiPFvvEi+0x1a8>
     cec:	44 30       	cpi	r20, 0x04	; 4
     cee:	51 05       	cpc	r21, r1
     cf0:	69 f0       	breq	.+26     	; 0xd0c <_Z15attachIntteruptiPFvvEi+0x1b0>
     cf2:	42 30       	cpi	r20, 0x02	; 2
     cf4:	51 05       	cpc	r21, r1
     cf6:	81 f4       	brne	.+32     	; 0xd18 <_Z15attachIntteruptiPFvvEi+0x1bc>
		{
			case 2:
			EICRB|=(1<<ISC50)|(1<<ISC51);
     cf8:	ea e6       	ldi	r30, 0x6A	; 106
     cfa:	f0 e0       	ldi	r31, 0x00	; 0
     cfc:	80 81       	ld	r24, Z
     cfe:	8c 60       	ori	r24, 0x0C	; 12
     d00:	80 83       	st	Z, r24
			break;
     d02:	08 95       	ret
			case 3:
			EICRB=(0<<ISC50)|(1<<ISC51);
     d04:	88 e0       	ldi	r24, 0x08	; 8
     d06:	80 93 6a 00 	sts	0x006A, r24
			break;
     d0a:	08 95       	ret
			case 4:
			EICRB|=(1<<ISC50)|(0<<ISC51);
     d0c:	ea e6       	ldi	r30, 0x6A	; 106
     d0e:	f0 e0       	ldi	r31, 0x00	; 0
     d10:	80 81       	ld	r24, Z
     d12:	84 60       	ori	r24, 0x04	; 4
     d14:	80 83       	st	Z, r24
			break;
     d16:	08 95       	ret
			default:
                 	EICRB|=(0<<ISC40)|(0<<ISC41);
     d18:	ea e6       	ldi	r30, 0x6A	; 106
     d1a:	f0 e0       	ldi	r31, 0x00	; 0
     d1c:	80 81       	ld	r24, Z
     d1e:	80 83       	st	Z, r24
     d20:	08 95       	ret

		}
		break;

		case 6:
		EIMSK|=1<<INT6;
     d22:	ee 9a       	sbi	0x1d, 6	; 29
	        switch(cOmpare)
     d24:	43 30       	cpi	r20, 0x03	; 3
     d26:	51 05       	cpc	r21, r1
     d28:	61 f0       	breq	.+24     	; 0xd42 <_Z15attachIntteruptiPFvvEi+0x1e6>
     d2a:	44 30       	cpi	r20, 0x04	; 4
     d2c:	51 05       	cpc	r21, r1
     d2e:	69 f0       	breq	.+26     	; 0xd4a <_Z15attachIntteruptiPFvvEi+0x1ee>
     d30:	42 30       	cpi	r20, 0x02	; 2
     d32:	51 05       	cpc	r21, r1
     d34:	81 f4       	brne	.+32     	; 0xd56 <_Z15attachIntteruptiPFvvEi+0x1fa>
		{
			case 2:
			EICRB|=(1<<ISC60)|(1<<ISC61);
     d36:	ea e6       	ldi	r30, 0x6A	; 106
     d38:	f0 e0       	ldi	r31, 0x00	; 0
     d3a:	80 81       	ld	r24, Z
     d3c:	80 63       	ori	r24, 0x30	; 48
     d3e:	80 83       	st	Z, r24
			break;
     d40:	08 95       	ret
			case 3:
			EICRB=(0<<ISC60)|(1<<ISC61);
     d42:	80 e2       	ldi	r24, 0x20	; 32
     d44:	80 93 6a 00 	sts	0x006A, r24
			break;
     d48:	08 95       	ret
			case 4:
			EICRB|=(1<<ISC60)|(0<<ISC61);
     d4a:	ea e6       	ldi	r30, 0x6A	; 106
     d4c:	f0 e0       	ldi	r31, 0x00	; 0
     d4e:	80 81       	ld	r24, Z
     d50:	80 61       	ori	r24, 0x10	; 16
     d52:	80 83       	st	Z, r24
			break;
     d54:	08 95       	ret
			default:
			EICRB|=(0<<ISC60)|(0<<ISC61);
     d56:	ea e6       	ldi	r30, 0x6A	; 106
     d58:	f0 e0       	ldi	r31, 0x00	; 0
     d5a:	80 81       	ld	r24, Z
     d5c:	80 83       	st	Z, r24
     d5e:	08 95       	ret

		}
		break;

		case 7:
		EIMSK|=1<<INT7;
     d60:	ef 9a       	sbi	0x1d, 7	; 29
		switch(cOmpare)
     d62:	43 30       	cpi	r20, 0x03	; 3
     d64:	51 05       	cpc	r21, r1
     d66:	61 f0       	breq	.+24     	; 0xd80 <_Z15attachIntteruptiPFvvEi+0x224>
     d68:	44 30       	cpi	r20, 0x04	; 4
     d6a:	51 05       	cpc	r21, r1
     d6c:	69 f0       	breq	.+26     	; 0xd88 <_Z15attachIntteruptiPFvvEi+0x22c>
     d6e:	42 30       	cpi	r20, 0x02	; 2
     d70:	51 05       	cpc	r21, r1
     d72:	81 f4       	brne	.+32     	; 0xd94 <_Z15attachIntteruptiPFvvEi+0x238>
		{
			case 2:
			EICRB|=(1<<ISC70)|(1<<ISC71);
     d74:	ea e6       	ldi	r30, 0x6A	; 106
     d76:	f0 e0       	ldi	r31, 0x00	; 0
     d78:	80 81       	ld	r24, Z
     d7a:	80 6c       	ori	r24, 0xC0	; 192
     d7c:	80 83       	st	Z, r24
			break;
     d7e:	08 95       	ret
			case 3:
			EICRB=(0<<ISC70)|(1<<ISC71);
     d80:	80 e8       	ldi	r24, 0x80	; 128
     d82:	80 93 6a 00 	sts	0x006A, r24
			break;
     d86:	08 95       	ret
			case 4:
			EICRB|=(1<<ISC70)|(0<<ISC71);
     d88:	ea e6       	ldi	r30, 0x6A	; 106
     d8a:	f0 e0       	ldi	r31, 0x00	; 0
     d8c:	80 81       	ld	r24, Z
     d8e:	80 64       	ori	r24, 0x40	; 64
     d90:	80 83       	st	Z, r24
			break;
     d92:	08 95       	ret
			default:
			EICRB|=(0<<ISC70)|(0<<ISC71);
     d94:	ea e6       	ldi	r30, 0x6A	; 106
     d96:	f0 e0       	ldi	r31, 0x00	; 0
     d98:	80 81       	ld	r24, Z
     d9a:	80 83       	st	Z, r24
     d9c:	08 95       	ret
		}
		break;

	        default:EICRA|=(0<<ISC01)|(0<<ISC00);
     d9e:	e9 e6       	ldi	r30, 0x69	; 105
     da0:	f0 e0       	ldi	r31, 0x00	; 0
     da2:	80 81       	ld	r24, Z
     da4:	80 83       	st	Z, r24
     da6:	08 95       	ret

00000da8 <__vector_1>:
	}
}
ISR(INT0_vect)
{
     da8:	1f 92       	push	r1
     daa:	0f 92       	push	r0
     dac:	0f b6       	in	r0, 0x3f	; 63
     dae:	0f 92       	push	r0
     db0:	0b b6       	in	r0, 0x3b	; 59
     db2:	0f 92       	push	r0
     db4:	11 24       	eor	r1, r1
     db6:	2f 93       	push	r18
     db8:	3f 93       	push	r19
     dba:	4f 93       	push	r20
     dbc:	5f 93       	push	r21
     dbe:	6f 93       	push	r22
     dc0:	7f 93       	push	r23
     dc2:	8f 93       	push	r24
     dc4:	9f 93       	push	r25
     dc6:	af 93       	push	r26
     dc8:	bf 93       	push	r27
     dca:	ef 93       	push	r30
     dcc:	ff 93       	push	r31
   cAllisr();
     dce:	e0 91 c2 02 	lds	r30, 0x02C2
     dd2:	f0 91 c3 02 	lds	r31, 0x02C3
     dd6:	19 95       	eicall
}
     dd8:	ff 91       	pop	r31
     dda:	ef 91       	pop	r30
     ddc:	bf 91       	pop	r27
     dde:	af 91       	pop	r26
     de0:	9f 91       	pop	r25
     de2:	8f 91       	pop	r24
     de4:	7f 91       	pop	r23
     de6:	6f 91       	pop	r22
     de8:	5f 91       	pop	r21
     dea:	4f 91       	pop	r20
     dec:	3f 91       	pop	r19
     dee:	2f 91       	pop	r18
     df0:	0f 90       	pop	r0
     df2:	0b be       	out	0x3b, r0	; 59
     df4:	0f 90       	pop	r0
     df6:	0f be       	out	0x3f, r0	; 63
     df8:	0f 90       	pop	r0
     dfa:	1f 90       	pop	r1
     dfc:	18 95       	reti

00000dfe <__vector_2>:
ISR(INT1_vect)
{
     dfe:	1f 92       	push	r1
     e00:	0f 92       	push	r0
     e02:	0f b6       	in	r0, 0x3f	; 63
     e04:	0f 92       	push	r0
     e06:	0b b6       	in	r0, 0x3b	; 59
     e08:	0f 92       	push	r0
     e0a:	11 24       	eor	r1, r1
     e0c:	2f 93       	push	r18
     e0e:	3f 93       	push	r19
     e10:	4f 93       	push	r20
     e12:	5f 93       	push	r21
     e14:	6f 93       	push	r22
     e16:	7f 93       	push	r23
     e18:	8f 93       	push	r24
     e1a:	9f 93       	push	r25
     e1c:	af 93       	push	r26
     e1e:	bf 93       	push	r27
     e20:	ef 93       	push	r30
     e22:	ff 93       	push	r31
   cAllisr();
     e24:	e0 91 c2 02 	lds	r30, 0x02C2
     e28:	f0 91 c3 02 	lds	r31, 0x02C3
     e2c:	19 95       	eicall
}
     e2e:	ff 91       	pop	r31
     e30:	ef 91       	pop	r30
     e32:	bf 91       	pop	r27
     e34:	af 91       	pop	r26
     e36:	9f 91       	pop	r25
     e38:	8f 91       	pop	r24
     e3a:	7f 91       	pop	r23
     e3c:	6f 91       	pop	r22
     e3e:	5f 91       	pop	r21
     e40:	4f 91       	pop	r20
     e42:	3f 91       	pop	r19
     e44:	2f 91       	pop	r18
     e46:	0f 90       	pop	r0
     e48:	0b be       	out	0x3b, r0	; 59
     e4a:	0f 90       	pop	r0
     e4c:	0f be       	out	0x3f, r0	; 63
     e4e:	0f 90       	pop	r0
     e50:	1f 90       	pop	r1
     e52:	18 95       	reti

00000e54 <__vector_3>:
ISR(INT2_vect)
{
     e54:	1f 92       	push	r1
     e56:	0f 92       	push	r0
     e58:	0f b6       	in	r0, 0x3f	; 63
     e5a:	0f 92       	push	r0
     e5c:	0b b6       	in	r0, 0x3b	; 59
     e5e:	0f 92       	push	r0
     e60:	11 24       	eor	r1, r1
     e62:	2f 93       	push	r18
     e64:	3f 93       	push	r19
     e66:	4f 93       	push	r20
     e68:	5f 93       	push	r21
     e6a:	6f 93       	push	r22
     e6c:	7f 93       	push	r23
     e6e:	8f 93       	push	r24
     e70:	9f 93       	push	r25
     e72:	af 93       	push	r26
     e74:	bf 93       	push	r27
     e76:	ef 93       	push	r30
     e78:	ff 93       	push	r31
   cAllisr();
     e7a:	e0 91 c2 02 	lds	r30, 0x02C2
     e7e:	f0 91 c3 02 	lds	r31, 0x02C3
     e82:	19 95       	eicall
}
     e84:	ff 91       	pop	r31
     e86:	ef 91       	pop	r30
     e88:	bf 91       	pop	r27
     e8a:	af 91       	pop	r26
     e8c:	9f 91       	pop	r25
     e8e:	8f 91       	pop	r24
     e90:	7f 91       	pop	r23
     e92:	6f 91       	pop	r22
     e94:	5f 91       	pop	r21
     e96:	4f 91       	pop	r20
     e98:	3f 91       	pop	r19
     e9a:	2f 91       	pop	r18
     e9c:	0f 90       	pop	r0
     e9e:	0b be       	out	0x3b, r0	; 59
     ea0:	0f 90       	pop	r0
     ea2:	0f be       	out	0x3f, r0	; 63
     ea4:	0f 90       	pop	r0
     ea6:	1f 90       	pop	r1
     ea8:	18 95       	reti

00000eaa <__vector_4>:
ISR(INT3_vect)
{
     eaa:	1f 92       	push	r1
     eac:	0f 92       	push	r0
     eae:	0f b6       	in	r0, 0x3f	; 63
     eb0:	0f 92       	push	r0
     eb2:	0b b6       	in	r0, 0x3b	; 59
     eb4:	0f 92       	push	r0
     eb6:	11 24       	eor	r1, r1
     eb8:	2f 93       	push	r18
     eba:	3f 93       	push	r19
     ebc:	4f 93       	push	r20
     ebe:	5f 93       	push	r21
     ec0:	6f 93       	push	r22
     ec2:	7f 93       	push	r23
     ec4:	8f 93       	push	r24
     ec6:	9f 93       	push	r25
     ec8:	af 93       	push	r26
     eca:	bf 93       	push	r27
     ecc:	ef 93       	push	r30
     ece:	ff 93       	push	r31
   cAllisr();
     ed0:	e0 91 c2 02 	lds	r30, 0x02C2
     ed4:	f0 91 c3 02 	lds	r31, 0x02C3
     ed8:	19 95       	eicall
}
     eda:	ff 91       	pop	r31
     edc:	ef 91       	pop	r30
     ede:	bf 91       	pop	r27
     ee0:	af 91       	pop	r26
     ee2:	9f 91       	pop	r25
     ee4:	8f 91       	pop	r24
     ee6:	7f 91       	pop	r23
     ee8:	6f 91       	pop	r22
     eea:	5f 91       	pop	r21
     eec:	4f 91       	pop	r20
     eee:	3f 91       	pop	r19
     ef0:	2f 91       	pop	r18
     ef2:	0f 90       	pop	r0
     ef4:	0b be       	out	0x3b, r0	; 59
     ef6:	0f 90       	pop	r0
     ef8:	0f be       	out	0x3f, r0	; 63
     efa:	0f 90       	pop	r0
     efc:	1f 90       	pop	r1
     efe:	18 95       	reti

00000f00 <__vector_5>:
ISR(INT4_vect)
{
     f00:	1f 92       	push	r1
     f02:	0f 92       	push	r0
     f04:	0f b6       	in	r0, 0x3f	; 63
     f06:	0f 92       	push	r0
     f08:	0b b6       	in	r0, 0x3b	; 59
     f0a:	0f 92       	push	r0
     f0c:	11 24       	eor	r1, r1
     f0e:	2f 93       	push	r18
     f10:	3f 93       	push	r19
     f12:	4f 93       	push	r20
     f14:	5f 93       	push	r21
     f16:	6f 93       	push	r22
     f18:	7f 93       	push	r23
     f1a:	8f 93       	push	r24
     f1c:	9f 93       	push	r25
     f1e:	af 93       	push	r26
     f20:	bf 93       	push	r27
     f22:	ef 93       	push	r30
     f24:	ff 93       	push	r31
    cAllisr();
     f26:	e0 91 c2 02 	lds	r30, 0x02C2
     f2a:	f0 91 c3 02 	lds	r31, 0x02C3
     f2e:	19 95       	eicall
}
     f30:	ff 91       	pop	r31
     f32:	ef 91       	pop	r30
     f34:	bf 91       	pop	r27
     f36:	af 91       	pop	r26
     f38:	9f 91       	pop	r25
     f3a:	8f 91       	pop	r24
     f3c:	7f 91       	pop	r23
     f3e:	6f 91       	pop	r22
     f40:	5f 91       	pop	r21
     f42:	4f 91       	pop	r20
     f44:	3f 91       	pop	r19
     f46:	2f 91       	pop	r18
     f48:	0f 90       	pop	r0
     f4a:	0b be       	out	0x3b, r0	; 59
     f4c:	0f 90       	pop	r0
     f4e:	0f be       	out	0x3f, r0	; 63
     f50:	0f 90       	pop	r0
     f52:	1f 90       	pop	r1
     f54:	18 95       	reti

00000f56 <__vector_6>:
ISR(INT5_vect)
{
     f56:	1f 92       	push	r1
     f58:	0f 92       	push	r0
     f5a:	0f b6       	in	r0, 0x3f	; 63
     f5c:	0f 92       	push	r0
     f5e:	0b b6       	in	r0, 0x3b	; 59
     f60:	0f 92       	push	r0
     f62:	11 24       	eor	r1, r1
     f64:	2f 93       	push	r18
     f66:	3f 93       	push	r19
     f68:	4f 93       	push	r20
     f6a:	5f 93       	push	r21
     f6c:	6f 93       	push	r22
     f6e:	7f 93       	push	r23
     f70:	8f 93       	push	r24
     f72:	9f 93       	push	r25
     f74:	af 93       	push	r26
     f76:	bf 93       	push	r27
     f78:	ef 93       	push	r30
     f7a:	ff 93       	push	r31
    cAllisr();
     f7c:	e0 91 c2 02 	lds	r30, 0x02C2
     f80:	f0 91 c3 02 	lds	r31, 0x02C3
     f84:	19 95       	eicall
}
     f86:	ff 91       	pop	r31
     f88:	ef 91       	pop	r30
     f8a:	bf 91       	pop	r27
     f8c:	af 91       	pop	r26
     f8e:	9f 91       	pop	r25
     f90:	8f 91       	pop	r24
     f92:	7f 91       	pop	r23
     f94:	6f 91       	pop	r22
     f96:	5f 91       	pop	r21
     f98:	4f 91       	pop	r20
     f9a:	3f 91       	pop	r19
     f9c:	2f 91       	pop	r18
     f9e:	0f 90       	pop	r0
     fa0:	0b be       	out	0x3b, r0	; 59
     fa2:	0f 90       	pop	r0
     fa4:	0f be       	out	0x3f, r0	; 63
     fa6:	0f 90       	pop	r0
     fa8:	1f 90       	pop	r1
     faa:	18 95       	reti

00000fac <__vector_7>:
ISR(INT6_vect)
{
     fac:	1f 92       	push	r1
     fae:	0f 92       	push	r0
     fb0:	0f b6       	in	r0, 0x3f	; 63
     fb2:	0f 92       	push	r0
     fb4:	0b b6       	in	r0, 0x3b	; 59
     fb6:	0f 92       	push	r0
     fb8:	11 24       	eor	r1, r1
     fba:	2f 93       	push	r18
     fbc:	3f 93       	push	r19
     fbe:	4f 93       	push	r20
     fc0:	5f 93       	push	r21
     fc2:	6f 93       	push	r22
     fc4:	7f 93       	push	r23
     fc6:	8f 93       	push	r24
     fc8:	9f 93       	push	r25
     fca:	af 93       	push	r26
     fcc:	bf 93       	push	r27
     fce:	ef 93       	push	r30
     fd0:	ff 93       	push	r31
    cAllisr();
     fd2:	e0 91 c2 02 	lds	r30, 0x02C2
     fd6:	f0 91 c3 02 	lds	r31, 0x02C3
     fda:	19 95       	eicall
}
     fdc:	ff 91       	pop	r31
     fde:	ef 91       	pop	r30
     fe0:	bf 91       	pop	r27
     fe2:	af 91       	pop	r26
     fe4:	9f 91       	pop	r25
     fe6:	8f 91       	pop	r24
     fe8:	7f 91       	pop	r23
     fea:	6f 91       	pop	r22
     fec:	5f 91       	pop	r21
     fee:	4f 91       	pop	r20
     ff0:	3f 91       	pop	r19
     ff2:	2f 91       	pop	r18
     ff4:	0f 90       	pop	r0
     ff6:	0b be       	out	0x3b, r0	; 59
     ff8:	0f 90       	pop	r0
     ffa:	0f be       	out	0x3f, r0	; 63
     ffc:	0f 90       	pop	r0
     ffe:	1f 90       	pop	r1
    1000:	18 95       	reti

00001002 <__vector_8>:
ISR(INT7_vect)
{
    1002:	1f 92       	push	r1
    1004:	0f 92       	push	r0
    1006:	0f b6       	in	r0, 0x3f	; 63
    1008:	0f 92       	push	r0
    100a:	0b b6       	in	r0, 0x3b	; 59
    100c:	0f 92       	push	r0
    100e:	11 24       	eor	r1, r1
    1010:	2f 93       	push	r18
    1012:	3f 93       	push	r19
    1014:	4f 93       	push	r20
    1016:	5f 93       	push	r21
    1018:	6f 93       	push	r22
    101a:	7f 93       	push	r23
    101c:	8f 93       	push	r24
    101e:	9f 93       	push	r25
    1020:	af 93       	push	r26
    1022:	bf 93       	push	r27
    1024:	ef 93       	push	r30
    1026:	ff 93       	push	r31
    cAllisr();
    1028:	e0 91 c2 02 	lds	r30, 0x02C2
    102c:	f0 91 c3 02 	lds	r31, 0x02C3
    1030:	19 95       	eicall
}
    1032:	ff 91       	pop	r31
    1034:	ef 91       	pop	r30
    1036:	bf 91       	pop	r27
    1038:	af 91       	pop	r26
    103a:	9f 91       	pop	r25
    103c:	8f 91       	pop	r24
    103e:	7f 91       	pop	r23
    1040:	6f 91       	pop	r22
    1042:	5f 91       	pop	r21
    1044:	4f 91       	pop	r20
    1046:	3f 91       	pop	r19
    1048:	2f 91       	pop	r18
    104a:	0f 90       	pop	r0
    104c:	0b be       	out	0x3b, r0	; 59
    104e:	0f 90       	pop	r0
    1050:	0f be       	out	0x3f, r0	; 63
    1052:	0f 90       	pop	r0
    1054:	1f 90       	pop	r1
    1056:	18 95       	reti

00001058 <_Z5setupv>:
#define servoPwm4 2

int correction[4]={-10,-30,-15,5},angle=150;		//HACK:All four servo are not mounted parallely, thus to compensate the offset angle, correction aray is made. 

/******************Main Code********************/	
void setup(){
    1058:	cf 92       	push	r12
    105a:	df 92       	push	r13
    105c:	ef 92       	push	r14
    105e:	ff 92       	push	r15
    1060:	0f 93       	push	r16
    1062:	1f 93       	push	r17
{
	public:
	void begin( unsigned int BAUD){
		/*Set baud rate */int uBrr;
		uBrr=(F_CPU/16UL/BAUD-1);
		UBRR0H = (unsigned char)(uBrr>>8);
    1064:	10 92 c5 00 	sts	0x00C5, r1
		UBRR0L = (unsigned char)uBrr;
    1068:	8c e0       	ldi	r24, 0x0C	; 12
    106a:	80 93 c4 00 	sts	0x00C4, r24
		/* Enable receiver and transmitter */
		UCSR0B = (1<<RXEN0)|(1<<TXEN0);
    106e:	88 e1       	ldi	r24, 0x18	; 24
    1070:	80 93 c1 00 	sts	0x00C1, r24
		/* Set frame format: 8data, 2stop bit */
		UCSR0C = (1<<USBS0)|(3<<UCSZ00);
    1074:	8e e0       	ldi	r24, 0x0E	; 14
    1076:	80 93 c2 00 	sts	0x00C2, r24
	Cytron(uint8_t getdIrpin, uint8_t getpWmpin, uint8_t getdIrpin1, uint8_t getpWmpin1){     //constructor function takes direction and pwm pins for cytron
    	dIrpin=getdIrpin;
	    pWmpin=getpWmpin;
	    pWmpin1=getpWmpin1;
	    dIrpin1=getdIrpin1;
	    pinMode(dIrpin,OUTPUT);     //sets direction pin as output
    107a:	8e e1       	ldi	r24, 0x1E	; 30
    107c:	61 e0       	ldi	r22, 0x01	; 1
    107e:	0e 94 95 00 	call	0x12a	; 0x12a <_Z7pinModehh>
	    pinMode(dIrpin1,OUTPUT);
    1082:	8f e1       	ldi	r24, 0x1F	; 31
    1084:	61 e0       	ldi	r22, 0x01	; 1
    1086:	0e 94 95 00 	call	0x12a	; 0x12a <_Z7pinModehh>
	}
	/* Set frame format: 8data, 2stop bit */
	void write( unsigned char dAta ){
		/* Wait for empty transmit buffer */
		while ((UCSR0A & (1<<UDRE0))==0);
    108a:	e0 ec       	ldi	r30, 0xC0	; 192
    108c:	f0 e0       	ldi	r31, 0x00	; 0
    108e:	80 81       	ld	r24, Z
    1090:	85 ff       	sbrs	r24, 5
    1092:	fd cf       	rjmp	.-6      	; 0x108e <_Z5setupv+0x36>
		/* Put data into buffer, sends the data */
		UDR0 = dAta;
    1094:	81 e0       	ldi	r24, 0x01	; 1
    1096:	80 93 c6 00 	sts	0x00C6, r24
	#else
		//round up by default
		__ticks_dc = (uint32_t)(ceil(fabs(__tmp)));
	#endif

	__builtin_avr_delay_cycles(__ticks_dc);
    109a:	87 ea       	ldi	r24, 0xA7	; 167
    109c:	91 e6       	ldi	r25, 0x61	; 97
    109e:	01 97       	sbiw	r24, 0x01	; 1
    10a0:	f1 f7       	brne	.-4      	; 0x109e <_Z5setupv+0x46>
    10a2:	00 c0       	rjmp	.+0      	; 0x10a4 <_Z5setupv+0x4c>
    10a4:	00 00       	nop
  	void direction(uint8_t dIrection){
		digitalWrite(dIrpin,dIrection);
	}
	
	void direction(uint8_t dIrection, uint8_t dIrection1){
		digitalWrite(dIrpin,dIrection);
    10a6:	8e e1       	ldi	r24, 0x1E	; 30
    10a8:	61 e0       	ldi	r22, 0x01	; 1
    10aa:	0e 94 08 02 	call	0x410	; 0x410 <_Z12digitalWritehh>
		digitalWrite(dIrpin1,dIrection1);
    10ae:	8f e1       	ldi	r24, 0x1F	; 31
    10b0:	61 e0       	ldi	r22, 0x01	; 1
    10b2:	0e 94 08 02 	call	0x410	; 0x410 <_Z12digitalWritehh>
		UCSR0C = (1<<USBS0)|(3<<UCSZ00);
	}
	/* Set frame format: 8data, 2stop bit */
	void write( unsigned char dAta ){
		/* Wait for empty transmit buffer */
		while ((UCSR0A & (1<<UDRE0))==0);
    10b6:	e0 ec       	ldi	r30, 0xC0	; 192
    10b8:	f0 e0       	ldi	r31, 0x00	; 0
    10ba:	80 81       	ld	r24, Z
    10bc:	85 ff       	sbrs	r24, 5
    10be:	fd cf       	rjmp	.-6      	; 0x10ba <_Z5setupv+0x62>
		/* Put data into buffer, sends the data */
		UDR0 = dAta;
    10c0:	82 e0       	ldi	r24, 0x02	; 2
    10c2:	80 93 c6 00 	sts	0x00C6, r24
    10c6:	87 ea       	ldi	r24, 0xA7	; 167
    10c8:	91 e6       	ldi	r25, 0x61	; 97
    10ca:	01 97       	sbiw	r24, 0x01	; 1
    10cc:	f1 f7       	brne	.-4      	; 0x10ca <_Z5setupv+0x72>
    10ce:	00 c0       	rjmp	.+0      	; 0x10d0 <_Z5setupv+0x78>
    10d0:	00 00       	nop
	    pWmpin1=getpWmpin1;
	    dIrpin1=getdIrpin1;
	    pinMode(dIrpin,OUTPUT);     //sets direction pin as output
	    pinMode(dIrpin1,OUTPUT);
	    lAstpwm=0;
		lAstpwm1=0;
    10d2:	dd 24       	eor	r13, r13
	    pWmpin=getpWmpin;
	    pWmpin1=getpWmpin1;
	    dIrpin1=getdIrpin1;
	    pinMode(dIrpin,OUTPUT);     //sets direction pin as output
	    pinMode(dIrpin1,OUTPUT);
	    lAstpwm=0;
    10d4:	cc 24       	eor	r12, r12
    10d6:	39 c0       	rjmp	.+114    	; 0x114a <_Z5setupv+0xf2>
		
		if(pWm>lAstpwm||pWm1>lAstpwm1){		//accelerate

			for(lAstpwm=lAstpwm,lAstpwm1=lAstpwm1;lAstpwm<pWm||lAstpwm1<pWm1;){		//increase the speed step by step
				if (pWm>lAstpwm){
					lAstpwm+=step1;
    10d8:	95 e0       	ldi	r25, 0x05	; 5
    10da:	c9 0e       	add	r12, r25
					analogWrite(pWmpin,constrain(lAstpwm,0,pWm));
    10dc:	6c 2d       	mov	r22, r12
    10de:	70 e0       	ldi	r23, 0x00	; 0
    10e0:	80 e0       	ldi	r24, 0x00	; 0
    10e2:	90 e0       	ldi	r25, 0x00	; 0
    10e4:	20 e0       	ldi	r18, 0x00	; 0
    10e6:	30 e0       	ldi	r19, 0x00	; 0
    10e8:	a9 01       	movw	r20, r18
    10ea:	0f 2e       	mov	r0, r31
    10ec:	f4 e6       	ldi	r31, 0x64	; 100
    10ee:	ef 2e       	mov	r14, r31
    10f0:	f0 e0       	ldi	r31, 0x00	; 0
    10f2:	ff 2e       	mov	r15, r31
    10f4:	f0 e0       	ldi	r31, 0x00	; 0
    10f6:	0f 2f       	mov	r16, r31
    10f8:	f0 e0       	ldi	r31, 0x00	; 0
    10fa:	1f 2f       	mov	r17, r31
    10fc:	f0 2d       	mov	r31, r0
    10fe:	0e 94 8f 05 	call	0xb1e	; 0xb1e <_Z9constrainlll>
    1102:	84 e0       	ldi	r24, 0x04	; 4
    1104:	0e 94 00 04 	call	0x800	; 0x800 <_Z11analogWritehh>
				}
				if (pWm1>lAstpwm1){
    1108:	8d 2d       	mov	r24, r13
    110a:	84 36       	cpi	r24, 0x64	; 100
    110c:	c0 f4       	brcc	.+48     	; 0x113e <_Z5setupv+0xe6>
					lAstpwm1+=step2;
    110e:	95 e0       	ldi	r25, 0x05	; 5
    1110:	d9 0e       	add	r13, r25
					analogWrite(pWmpin1,constrain(lAstpwm1,0,pWm1));
    1112:	6d 2d       	mov	r22, r13
    1114:	70 e0       	ldi	r23, 0x00	; 0
    1116:	80 e0       	ldi	r24, 0x00	; 0
    1118:	90 e0       	ldi	r25, 0x00	; 0
    111a:	20 e0       	ldi	r18, 0x00	; 0
    111c:	30 e0       	ldi	r19, 0x00	; 0
    111e:	a9 01       	movw	r20, r18
    1120:	0f 2e       	mov	r0, r31
    1122:	f4 e6       	ldi	r31, 0x64	; 100
    1124:	ef 2e       	mov	r14, r31
    1126:	f0 e0       	ldi	r31, 0x00	; 0
    1128:	ff 2e       	mov	r15, r31
    112a:	f0 e0       	ldi	r31, 0x00	; 0
    112c:	0f 2f       	mov	r16, r31
    112e:	f0 e0       	ldi	r31, 0x00	; 0
    1130:	1f 2f       	mov	r17, r31
    1132:	f0 2d       	mov	r31, r0
    1134:	0e 94 8f 05 	call	0xb1e	; 0xb1e <_Z9constrainlll>
    1138:	8d e0       	ldi	r24, 0x0D	; 13
    113a:	0e 94 00 04 	call	0x800	; 0x800 <_Z11analogWritehh>
				}	
				delay(interval);		
    113e:	6a e0       	ldi	r22, 0x0A	; 10
    1140:	70 e0       	ldi	r23, 0x00	; 0
    1142:	80 e0       	ldi	r24, 0x00	; 0
    1144:	90 e0       	ldi	r25, 0x00	; 0
    1146:	0e 94 0d 05 	call	0xa1a	; 0xa1a <_Z5delaym>
	//TWO MOTORS
	void drive(uint8_t pWm, uint8_t pWm1){
		
		if(pWm>lAstpwm||pWm1>lAstpwm1){		//accelerate

			for(lAstpwm=lAstpwm,lAstpwm1=lAstpwm1;lAstpwm<pWm||lAstpwm1<pWm1;){		//increase the speed step by step
    114a:	8c 2d       	mov	r24, r12
    114c:	84 36       	cpi	r24, 0x64	; 100
    114e:	20 f2       	brcs	.-120    	; 0x10d8 <_Z5setupv+0x80>
    1150:	9d 2d       	mov	r25, r13
    1152:	94 36       	cpi	r25, 0x64	; 100
    1154:	c8 f2       	brcs	.-78     	; 0x1108 <_Z5setupv+0xb0>
		UCSR0C = (1<<USBS0)|(3<<UCSZ00);
	}
	/* Set frame format: 8data, 2stop bit */
	void write( unsigned char dAta ){
		/* Wait for empty transmit buffer */
		while ((UCSR0A & (1<<UDRE0))==0);
    1156:	e0 ec       	ldi	r30, 0xC0	; 192
    1158:	f0 e0       	ldi	r31, 0x00	; 0
    115a:	80 81       	ld	r24, Z
    115c:	85 ff       	sbrs	r24, 5
    115e:	fd cf       	rjmp	.-6      	; 0x115a <_Z5setupv+0x102>
		/* Put data into buffer, sends the data */
		UDR0 = dAta;
    1160:	83 e0       	ldi	r24, 0x03	; 3
    1162:	80 93 c6 00 	sts	0x00C6, r24
    1166:	87 ea       	ldi	r24, 0xA7	; 167
    1168:	91 e6       	ldi	r25, 0x61	; 97
    116a:	01 97       	sbiw	r24, 0x01	; 1
    116c:	f1 f7       	brne	.-4      	; 0x116a <_Z5setupv+0x112>
    116e:	00 c0       	rjmp	.+0      	; 0x1170 <_Z5setupv+0x118>
    1170:	00 00       	nop
	swerve4.attach(servoPwm4);*/
	motor12.direction(1,1);
	//motor34.direction(1,1);
	motor12.drive(100,100);
	
}
    1172:	1f 91       	pop	r17
    1174:	0f 91       	pop	r16
    1176:	ff 90       	pop	r15
    1178:	ef 90       	pop	r14
    117a:	df 90       	pop	r13
    117c:	cf 90       	pop	r12
    117e:	08 95       	ret

00001180 <_Z4loopv>:
	swerve2.write(angle+correction[1]);
	swerve3.write(angle+correction[2]);
	swerve4.write(angle+correction[3]);*/	
	
	//motor34.drive(100,100);
	delay(1000);
    1180:	68 ee       	ldi	r22, 0xE8	; 232
    1182:	73 e0       	ldi	r23, 0x03	; 3
    1184:	80 e0       	ldi	r24, 0x00	; 0
    1186:	90 e0       	ldi	r25, 0x00	; 0
    1188:	0e 94 0d 05 	call	0xa1a	; 0xa1a <_Z5delaym>
	//motor12.drive(0);
	//motor34.drive(0,0);
	delay(1000);
    118c:	68 ee       	ldi	r22, 0xE8	; 232
    118e:	73 e0       	ldi	r23, 0x03	; 3
    1190:	80 e0       	ldi	r24, 0x00	; 0
    1192:	90 e0       	ldi	r25, 0x00	; 0
    1194:	0e 94 0d 05 	call	0xa1a	; 0xa1a <_Z5delaym>
    1198:	08 95       	ret

0000119a <main>:
	uSerfun();
}*/

int main(){
	//tinit();
	setup();
    119a:	0e 94 2c 08 	call	0x1058	; 0x1058 <_Z5setupv>
	while(1){
		loop();
    119e:	0e 94 c0 08 	call	0x1180	; 0x1180 <_Z4loopv>
    11a2:	fd cf       	rjmp	.-6      	; 0x119e <main+0x4>

000011a4 <__fixunssfsi>:
    11a4:	70 d0       	rcall	.+224    	; 0x1286 <__fp_splitA>
    11a6:	88 f0       	brcs	.+34     	; 0x11ca <__fixunssfsi+0x26>
    11a8:	9f 57       	subi	r25, 0x7F	; 127
    11aa:	90 f0       	brcs	.+36     	; 0x11d0 <__fixunssfsi+0x2c>
    11ac:	b9 2f       	mov	r27, r25
    11ae:	99 27       	eor	r25, r25
    11b0:	b7 51       	subi	r27, 0x17	; 23
    11b2:	a0 f0       	brcs	.+40     	; 0x11dc <__fixunssfsi+0x38>
    11b4:	d1 f0       	breq	.+52     	; 0x11ea <__fixunssfsi+0x46>
    11b6:	66 0f       	add	r22, r22
    11b8:	77 1f       	adc	r23, r23
    11ba:	88 1f       	adc	r24, r24
    11bc:	99 1f       	adc	r25, r25
    11be:	1a f0       	brmi	.+6      	; 0x11c6 <__fixunssfsi+0x22>
    11c0:	ba 95       	dec	r27
    11c2:	c9 f7       	brne	.-14     	; 0x11b6 <__fixunssfsi+0x12>
    11c4:	12 c0       	rjmp	.+36     	; 0x11ea <__fixunssfsi+0x46>
    11c6:	b1 30       	cpi	r27, 0x01	; 1
    11c8:	81 f0       	breq	.+32     	; 0x11ea <__fixunssfsi+0x46>
    11ca:	77 d0       	rcall	.+238    	; 0x12ba <__fp_zero>
    11cc:	b1 e0       	ldi	r27, 0x01	; 1
    11ce:	08 95       	ret
    11d0:	74 c0       	rjmp	.+232    	; 0x12ba <__fp_zero>
    11d2:	67 2f       	mov	r22, r23
    11d4:	78 2f       	mov	r23, r24
    11d6:	88 27       	eor	r24, r24
    11d8:	b8 5f       	subi	r27, 0xF8	; 248
    11da:	39 f0       	breq	.+14     	; 0x11ea <__fixunssfsi+0x46>
    11dc:	b9 3f       	cpi	r27, 0xF9	; 249
    11de:	cc f3       	brlt	.-14     	; 0x11d2 <__fixunssfsi+0x2e>
    11e0:	86 95       	lsr	r24
    11e2:	77 95       	ror	r23
    11e4:	67 95       	ror	r22
    11e6:	b3 95       	inc	r27
    11e8:	d9 f7       	brne	.-10     	; 0x11e0 <__fixunssfsi+0x3c>
    11ea:	3e f4       	brtc	.+14     	; 0x11fa <__fixunssfsi+0x56>
    11ec:	90 95       	com	r25
    11ee:	80 95       	com	r24
    11f0:	70 95       	com	r23
    11f2:	61 95       	neg	r22
    11f4:	7f 4f       	sbci	r23, 0xFF	; 255
    11f6:	8f 4f       	sbci	r24, 0xFF	; 255
    11f8:	9f 4f       	sbci	r25, 0xFF	; 255
    11fa:	08 95       	ret

000011fc <__floatunsisf>:
    11fc:	e8 94       	clt
    11fe:	09 c0       	rjmp	.+18     	; 0x1212 <__floatsisf+0x12>

00001200 <__floatsisf>:
    1200:	97 fb       	bst	r25, 7
    1202:	3e f4       	brtc	.+14     	; 0x1212 <__floatsisf+0x12>
    1204:	90 95       	com	r25
    1206:	80 95       	com	r24
    1208:	70 95       	com	r23
    120a:	61 95       	neg	r22
    120c:	7f 4f       	sbci	r23, 0xFF	; 255
    120e:	8f 4f       	sbci	r24, 0xFF	; 255
    1210:	9f 4f       	sbci	r25, 0xFF	; 255
    1212:	99 23       	and	r25, r25
    1214:	a9 f0       	breq	.+42     	; 0x1240 <__floatsisf+0x40>
    1216:	f9 2f       	mov	r31, r25
    1218:	96 e9       	ldi	r25, 0x96	; 150
    121a:	bb 27       	eor	r27, r27
    121c:	93 95       	inc	r25
    121e:	f6 95       	lsr	r31
    1220:	87 95       	ror	r24
    1222:	77 95       	ror	r23
    1224:	67 95       	ror	r22
    1226:	b7 95       	ror	r27
    1228:	f1 11       	cpse	r31, r1
    122a:	f8 cf       	rjmp	.-16     	; 0x121c <__floatsisf+0x1c>
    122c:	fa f4       	brpl	.+62     	; 0x126c <__floatsisf+0x6c>
    122e:	bb 0f       	add	r27, r27
    1230:	11 f4       	brne	.+4      	; 0x1236 <__floatsisf+0x36>
    1232:	60 ff       	sbrs	r22, 0
    1234:	1b c0       	rjmp	.+54     	; 0x126c <__floatsisf+0x6c>
    1236:	6f 5f       	subi	r22, 0xFF	; 255
    1238:	7f 4f       	sbci	r23, 0xFF	; 255
    123a:	8f 4f       	sbci	r24, 0xFF	; 255
    123c:	9f 4f       	sbci	r25, 0xFF	; 255
    123e:	16 c0       	rjmp	.+44     	; 0x126c <__floatsisf+0x6c>
    1240:	88 23       	and	r24, r24
    1242:	11 f0       	breq	.+4      	; 0x1248 <__floatsisf+0x48>
    1244:	96 e9       	ldi	r25, 0x96	; 150
    1246:	11 c0       	rjmp	.+34     	; 0x126a <__floatsisf+0x6a>
    1248:	77 23       	and	r23, r23
    124a:	21 f0       	breq	.+8      	; 0x1254 <__floatsisf+0x54>
    124c:	9e e8       	ldi	r25, 0x8E	; 142
    124e:	87 2f       	mov	r24, r23
    1250:	76 2f       	mov	r23, r22
    1252:	05 c0       	rjmp	.+10     	; 0x125e <__floatsisf+0x5e>
    1254:	66 23       	and	r22, r22
    1256:	71 f0       	breq	.+28     	; 0x1274 <__floatsisf+0x74>
    1258:	96 e8       	ldi	r25, 0x86	; 134
    125a:	86 2f       	mov	r24, r22
    125c:	70 e0       	ldi	r23, 0x00	; 0
    125e:	60 e0       	ldi	r22, 0x00	; 0
    1260:	2a f0       	brmi	.+10     	; 0x126c <__floatsisf+0x6c>
    1262:	9a 95       	dec	r25
    1264:	66 0f       	add	r22, r22
    1266:	77 1f       	adc	r23, r23
    1268:	88 1f       	adc	r24, r24
    126a:	da f7       	brpl	.-10     	; 0x1262 <__floatsisf+0x62>
    126c:	88 0f       	add	r24, r24
    126e:	96 95       	lsr	r25
    1270:	87 95       	ror	r24
    1272:	97 f9       	bld	r25, 7
    1274:	08 95       	ret

00001276 <__fp_split3>:
    1276:	57 fd       	sbrc	r21, 7
    1278:	90 58       	subi	r25, 0x80	; 128
    127a:	44 0f       	add	r20, r20
    127c:	55 1f       	adc	r21, r21
    127e:	59 f0       	breq	.+22     	; 0x1296 <__fp_splitA+0x10>
    1280:	5f 3f       	cpi	r21, 0xFF	; 255
    1282:	71 f0       	breq	.+28     	; 0x12a0 <__fp_splitA+0x1a>
    1284:	47 95       	ror	r20

00001286 <__fp_splitA>:
    1286:	88 0f       	add	r24, r24
    1288:	97 fb       	bst	r25, 7
    128a:	99 1f       	adc	r25, r25
    128c:	61 f0       	breq	.+24     	; 0x12a6 <__fp_splitA+0x20>
    128e:	9f 3f       	cpi	r25, 0xFF	; 255
    1290:	79 f0       	breq	.+30     	; 0x12b0 <__fp_splitA+0x2a>
    1292:	87 95       	ror	r24
    1294:	08 95       	ret
    1296:	12 16       	cp	r1, r18
    1298:	13 06       	cpc	r1, r19
    129a:	14 06       	cpc	r1, r20
    129c:	55 1f       	adc	r21, r21
    129e:	f2 cf       	rjmp	.-28     	; 0x1284 <__fp_split3+0xe>
    12a0:	46 95       	lsr	r20
    12a2:	f1 df       	rcall	.-30     	; 0x1286 <__fp_splitA>
    12a4:	08 c0       	rjmp	.+16     	; 0x12b6 <__fp_splitA+0x30>
    12a6:	16 16       	cp	r1, r22
    12a8:	17 06       	cpc	r1, r23
    12aa:	18 06       	cpc	r1, r24
    12ac:	99 1f       	adc	r25, r25
    12ae:	f1 cf       	rjmp	.-30     	; 0x1292 <__fp_splitA+0xc>
    12b0:	86 95       	lsr	r24
    12b2:	71 05       	cpc	r23, r1
    12b4:	61 05       	cpc	r22, r1
    12b6:	08 94       	sec
    12b8:	08 95       	ret

000012ba <__fp_zero>:
    12ba:	e8 94       	clt

000012bc <__fp_szero>:
    12bc:	bb 27       	eor	r27, r27
    12be:	66 27       	eor	r22, r22
    12c0:	77 27       	eor	r23, r23
    12c2:	cb 01       	movw	r24, r22
    12c4:	97 f9       	bld	r25, 7
    12c6:	08 95       	ret

000012c8 <__mulsf3>:
    12c8:	0b d0       	rcall	.+22     	; 0x12e0 <__mulsf3x>
    12ca:	78 c0       	rjmp	.+240    	; 0x13bc <__fp_round>
    12cc:	69 d0       	rcall	.+210    	; 0x13a0 <__fp_pscA>
    12ce:	28 f0       	brcs	.+10     	; 0x12da <__mulsf3+0x12>
    12d0:	6e d0       	rcall	.+220    	; 0x13ae <__fp_pscB>
    12d2:	18 f0       	brcs	.+6      	; 0x12da <__mulsf3+0x12>
    12d4:	95 23       	and	r25, r21
    12d6:	09 f0       	breq	.+2      	; 0x12da <__mulsf3+0x12>
    12d8:	5a c0       	rjmp	.+180    	; 0x138e <__fp_inf>
    12da:	5f c0       	rjmp	.+190    	; 0x139a <__fp_nan>
    12dc:	11 24       	eor	r1, r1
    12de:	ee cf       	rjmp	.-36     	; 0x12bc <__fp_szero>

000012e0 <__mulsf3x>:
    12e0:	ca df       	rcall	.-108    	; 0x1276 <__fp_split3>
    12e2:	a0 f3       	brcs	.-24     	; 0x12cc <__mulsf3+0x4>

000012e4 <__mulsf3_pse>:
    12e4:	95 9f       	mul	r25, r21
    12e6:	d1 f3       	breq	.-12     	; 0x12dc <__mulsf3+0x14>
    12e8:	95 0f       	add	r25, r21
    12ea:	50 e0       	ldi	r21, 0x00	; 0
    12ec:	55 1f       	adc	r21, r21
    12ee:	62 9f       	mul	r22, r18
    12f0:	f0 01       	movw	r30, r0
    12f2:	72 9f       	mul	r23, r18
    12f4:	bb 27       	eor	r27, r27
    12f6:	f0 0d       	add	r31, r0
    12f8:	b1 1d       	adc	r27, r1
    12fa:	63 9f       	mul	r22, r19
    12fc:	aa 27       	eor	r26, r26
    12fe:	f0 0d       	add	r31, r0
    1300:	b1 1d       	adc	r27, r1
    1302:	aa 1f       	adc	r26, r26
    1304:	64 9f       	mul	r22, r20
    1306:	66 27       	eor	r22, r22
    1308:	b0 0d       	add	r27, r0
    130a:	a1 1d       	adc	r26, r1
    130c:	66 1f       	adc	r22, r22
    130e:	82 9f       	mul	r24, r18
    1310:	22 27       	eor	r18, r18
    1312:	b0 0d       	add	r27, r0
    1314:	a1 1d       	adc	r26, r1
    1316:	62 1f       	adc	r22, r18
    1318:	73 9f       	mul	r23, r19
    131a:	b0 0d       	add	r27, r0
    131c:	a1 1d       	adc	r26, r1
    131e:	62 1f       	adc	r22, r18
    1320:	83 9f       	mul	r24, r19
    1322:	a0 0d       	add	r26, r0
    1324:	61 1d       	adc	r22, r1
    1326:	22 1f       	adc	r18, r18
    1328:	74 9f       	mul	r23, r20
    132a:	33 27       	eor	r19, r19
    132c:	a0 0d       	add	r26, r0
    132e:	61 1d       	adc	r22, r1
    1330:	23 1f       	adc	r18, r19
    1332:	84 9f       	mul	r24, r20
    1334:	60 0d       	add	r22, r0
    1336:	21 1d       	adc	r18, r1
    1338:	82 2f       	mov	r24, r18
    133a:	76 2f       	mov	r23, r22
    133c:	6a 2f       	mov	r22, r26
    133e:	11 24       	eor	r1, r1
    1340:	9f 57       	subi	r25, 0x7F	; 127
    1342:	50 40       	sbci	r21, 0x00	; 0
    1344:	8a f0       	brmi	.+34     	; 0x1368 <__mulsf3_pse+0x84>
    1346:	e1 f0       	breq	.+56     	; 0x1380 <__mulsf3_pse+0x9c>
    1348:	88 23       	and	r24, r24
    134a:	4a f0       	brmi	.+18     	; 0x135e <__mulsf3_pse+0x7a>
    134c:	ee 0f       	add	r30, r30
    134e:	ff 1f       	adc	r31, r31
    1350:	bb 1f       	adc	r27, r27
    1352:	66 1f       	adc	r22, r22
    1354:	77 1f       	adc	r23, r23
    1356:	88 1f       	adc	r24, r24
    1358:	91 50       	subi	r25, 0x01	; 1
    135a:	50 40       	sbci	r21, 0x00	; 0
    135c:	a9 f7       	brne	.-22     	; 0x1348 <__mulsf3_pse+0x64>
    135e:	9e 3f       	cpi	r25, 0xFE	; 254
    1360:	51 05       	cpc	r21, r1
    1362:	70 f0       	brcs	.+28     	; 0x1380 <__mulsf3_pse+0x9c>
    1364:	14 c0       	rjmp	.+40     	; 0x138e <__fp_inf>
    1366:	aa cf       	rjmp	.-172    	; 0x12bc <__fp_szero>
    1368:	5f 3f       	cpi	r21, 0xFF	; 255
    136a:	ec f3       	brlt	.-6      	; 0x1366 <__mulsf3_pse+0x82>
    136c:	98 3e       	cpi	r25, 0xE8	; 232
    136e:	dc f3       	brlt	.-10     	; 0x1366 <__mulsf3_pse+0x82>
    1370:	86 95       	lsr	r24
    1372:	77 95       	ror	r23
    1374:	67 95       	ror	r22
    1376:	b7 95       	ror	r27
    1378:	f7 95       	ror	r31
    137a:	e7 95       	ror	r30
    137c:	9f 5f       	subi	r25, 0xFF	; 255
    137e:	c1 f7       	brne	.-16     	; 0x1370 <__mulsf3_pse+0x8c>
    1380:	fe 2b       	or	r31, r30
    1382:	88 0f       	add	r24, r24
    1384:	91 1d       	adc	r25, r1
    1386:	96 95       	lsr	r25
    1388:	87 95       	ror	r24
    138a:	97 f9       	bld	r25, 7
    138c:	08 95       	ret

0000138e <__fp_inf>:
    138e:	97 f9       	bld	r25, 7
    1390:	9f 67       	ori	r25, 0x7F	; 127
    1392:	80 e8       	ldi	r24, 0x80	; 128
    1394:	70 e0       	ldi	r23, 0x00	; 0
    1396:	60 e0       	ldi	r22, 0x00	; 0
    1398:	08 95       	ret

0000139a <__fp_nan>:
    139a:	9f ef       	ldi	r25, 0xFF	; 255
    139c:	80 ec       	ldi	r24, 0xC0	; 192
    139e:	08 95       	ret

000013a0 <__fp_pscA>:
    13a0:	00 24       	eor	r0, r0
    13a2:	0a 94       	dec	r0
    13a4:	16 16       	cp	r1, r22
    13a6:	17 06       	cpc	r1, r23
    13a8:	18 06       	cpc	r1, r24
    13aa:	09 06       	cpc	r0, r25
    13ac:	08 95       	ret

000013ae <__fp_pscB>:
    13ae:	00 24       	eor	r0, r0
    13b0:	0a 94       	dec	r0
    13b2:	12 16       	cp	r1, r18
    13b4:	13 06       	cpc	r1, r19
    13b6:	14 06       	cpc	r1, r20
    13b8:	05 06       	cpc	r0, r21
    13ba:	08 95       	ret

000013bc <__fp_round>:
    13bc:	09 2e       	mov	r0, r25
    13be:	03 94       	inc	r0
    13c0:	00 0c       	add	r0, r0
    13c2:	11 f4       	brne	.+4      	; 0x13c8 <__fp_round+0xc>
    13c4:	88 23       	and	r24, r24
    13c6:	52 f0       	brmi	.+20     	; 0x13dc <__fp_round+0x20>
    13c8:	bb 0f       	add	r27, r27
    13ca:	40 f4       	brcc	.+16     	; 0x13dc <__fp_round+0x20>
    13cc:	bf 2b       	or	r27, r31
    13ce:	11 f4       	brne	.+4      	; 0x13d4 <__fp_round+0x18>
    13d0:	60 ff       	sbrs	r22, 0
    13d2:	04 c0       	rjmp	.+8      	; 0x13dc <__fp_round+0x20>
    13d4:	6f 5f       	subi	r22, 0xFF	; 255
    13d6:	7f 4f       	sbci	r23, 0xFF	; 255
    13d8:	8f 4f       	sbci	r24, 0xFF	; 255
    13da:	9f 4f       	sbci	r25, 0xFF	; 255
    13dc:	08 95       	ret

000013de <__mulsi3>:
    13de:	62 9f       	mul	r22, r18
    13e0:	d0 01       	movw	r26, r0
    13e2:	73 9f       	mul	r23, r19
    13e4:	f0 01       	movw	r30, r0
    13e6:	82 9f       	mul	r24, r18
    13e8:	e0 0d       	add	r30, r0
    13ea:	f1 1d       	adc	r31, r1
    13ec:	64 9f       	mul	r22, r20
    13ee:	e0 0d       	add	r30, r0
    13f0:	f1 1d       	adc	r31, r1
    13f2:	92 9f       	mul	r25, r18
    13f4:	f0 0d       	add	r31, r0
    13f6:	83 9f       	mul	r24, r19
    13f8:	f0 0d       	add	r31, r0
    13fa:	74 9f       	mul	r23, r20
    13fc:	f0 0d       	add	r31, r0
    13fe:	65 9f       	mul	r22, r21
    1400:	f0 0d       	add	r31, r0
    1402:	99 27       	eor	r25, r25
    1404:	72 9f       	mul	r23, r18
    1406:	b0 0d       	add	r27, r0
    1408:	e1 1d       	adc	r30, r1
    140a:	f9 1f       	adc	r31, r25
    140c:	63 9f       	mul	r22, r19
    140e:	b0 0d       	add	r27, r0
    1410:	e1 1d       	adc	r30, r1
    1412:	f9 1f       	adc	r31, r25
    1414:	bd 01       	movw	r22, r26
    1416:	cf 01       	movw	r24, r30
    1418:	11 24       	eor	r1, r1
    141a:	08 95       	ret

0000141c <__divmodhi4>:
    141c:	97 fb       	bst	r25, 7
    141e:	09 2e       	mov	r0, r25
    1420:	07 26       	eor	r0, r23
    1422:	0a d0       	rcall	.+20     	; 0x1438 <__divmodhi4_neg1>
    1424:	77 fd       	sbrc	r23, 7
    1426:	04 d0       	rcall	.+8      	; 0x1430 <__divmodhi4_neg2>
    1428:	27 d0       	rcall	.+78     	; 0x1478 <__udivmodhi4>
    142a:	06 d0       	rcall	.+12     	; 0x1438 <__divmodhi4_neg1>
    142c:	00 20       	and	r0, r0
    142e:	1a f4       	brpl	.+6      	; 0x1436 <__divmodhi4_exit>

00001430 <__divmodhi4_neg2>:
    1430:	70 95       	com	r23
    1432:	61 95       	neg	r22
    1434:	7f 4f       	sbci	r23, 0xFF	; 255

00001436 <__divmodhi4_exit>:
    1436:	08 95       	ret

00001438 <__divmodhi4_neg1>:
    1438:	f6 f7       	brtc	.-4      	; 0x1436 <__divmodhi4_exit>
    143a:	90 95       	com	r25
    143c:	81 95       	neg	r24
    143e:	9f 4f       	sbci	r25, 0xFF	; 255
    1440:	08 95       	ret

00001442 <__divmodsi4>:
    1442:	97 fb       	bst	r25, 7
    1444:	09 2e       	mov	r0, r25
    1446:	05 26       	eor	r0, r21
    1448:	0e d0       	rcall	.+28     	; 0x1466 <__divmodsi4_neg1>
    144a:	57 fd       	sbrc	r21, 7
    144c:	04 d0       	rcall	.+8      	; 0x1456 <__divmodsi4_neg2>
    144e:	28 d0       	rcall	.+80     	; 0x14a0 <__udivmodsi4>
    1450:	0a d0       	rcall	.+20     	; 0x1466 <__divmodsi4_neg1>
    1452:	00 1c       	adc	r0, r0
    1454:	38 f4       	brcc	.+14     	; 0x1464 <__divmodsi4_exit>

00001456 <__divmodsi4_neg2>:
    1456:	50 95       	com	r21
    1458:	40 95       	com	r20
    145a:	30 95       	com	r19
    145c:	21 95       	neg	r18
    145e:	3f 4f       	sbci	r19, 0xFF	; 255
    1460:	4f 4f       	sbci	r20, 0xFF	; 255
    1462:	5f 4f       	sbci	r21, 0xFF	; 255

00001464 <__divmodsi4_exit>:
    1464:	08 95       	ret

00001466 <__divmodsi4_neg1>:
    1466:	f6 f7       	brtc	.-4      	; 0x1464 <__divmodsi4_exit>
    1468:	90 95       	com	r25
    146a:	80 95       	com	r24
    146c:	70 95       	com	r23
    146e:	61 95       	neg	r22
    1470:	7f 4f       	sbci	r23, 0xFF	; 255
    1472:	8f 4f       	sbci	r24, 0xFF	; 255
    1474:	9f 4f       	sbci	r25, 0xFF	; 255
    1476:	08 95       	ret

00001478 <__udivmodhi4>:
    1478:	aa 1b       	sub	r26, r26
    147a:	bb 1b       	sub	r27, r27
    147c:	51 e1       	ldi	r21, 0x11	; 17
    147e:	07 c0       	rjmp	.+14     	; 0x148e <__udivmodhi4_ep>

00001480 <__udivmodhi4_loop>:
    1480:	aa 1f       	adc	r26, r26
    1482:	bb 1f       	adc	r27, r27
    1484:	a6 17       	cp	r26, r22
    1486:	b7 07       	cpc	r27, r23
    1488:	10 f0       	brcs	.+4      	; 0x148e <__udivmodhi4_ep>
    148a:	a6 1b       	sub	r26, r22
    148c:	b7 0b       	sbc	r27, r23

0000148e <__udivmodhi4_ep>:
    148e:	88 1f       	adc	r24, r24
    1490:	99 1f       	adc	r25, r25
    1492:	5a 95       	dec	r21
    1494:	a9 f7       	brne	.-22     	; 0x1480 <__udivmodhi4_loop>
    1496:	80 95       	com	r24
    1498:	90 95       	com	r25
    149a:	bc 01       	movw	r22, r24
    149c:	cd 01       	movw	r24, r26
    149e:	08 95       	ret

000014a0 <__udivmodsi4>:
    14a0:	a1 e2       	ldi	r26, 0x21	; 33
    14a2:	1a 2e       	mov	r1, r26
    14a4:	aa 1b       	sub	r26, r26
    14a6:	bb 1b       	sub	r27, r27
    14a8:	fd 01       	movw	r30, r26
    14aa:	0d c0       	rjmp	.+26     	; 0x14c6 <__udivmodsi4_ep>

000014ac <__udivmodsi4_loop>:
    14ac:	aa 1f       	adc	r26, r26
    14ae:	bb 1f       	adc	r27, r27
    14b0:	ee 1f       	adc	r30, r30
    14b2:	ff 1f       	adc	r31, r31
    14b4:	a2 17       	cp	r26, r18
    14b6:	b3 07       	cpc	r27, r19
    14b8:	e4 07       	cpc	r30, r20
    14ba:	f5 07       	cpc	r31, r21
    14bc:	20 f0       	brcs	.+8      	; 0x14c6 <__udivmodsi4_ep>
    14be:	a2 1b       	sub	r26, r18
    14c0:	b3 0b       	sbc	r27, r19
    14c2:	e4 0b       	sbc	r30, r20
    14c4:	f5 0b       	sbc	r31, r21

000014c6 <__udivmodsi4_ep>:
    14c6:	66 1f       	adc	r22, r22
    14c8:	77 1f       	adc	r23, r23
    14ca:	88 1f       	adc	r24, r24
    14cc:	99 1f       	adc	r25, r25
    14ce:	1a 94       	dec	r1
    14d0:	69 f7       	brne	.-38     	; 0x14ac <__udivmodsi4_loop>
    14d2:	60 95       	com	r22
    14d4:	70 95       	com	r23
    14d6:	80 95       	com	r24
    14d8:	90 95       	com	r25
    14da:	9b 01       	movw	r18, r22
    14dc:	ac 01       	movw	r20, r24
    14de:	bd 01       	movw	r22, r26
    14e0:	cf 01       	movw	r24, r30
    14e2:	08 95       	ret

000014e4 <_exit>:
    14e4:	f8 94       	cli

000014e6 <__stop_program>:
    14e6:	ff cf       	rjmp	.-2      	; 0x14e6 <__stop_program>
