
PrototypeSwerveDrive.elf:     file format elf32-avr

Sections:
Idx Name          Size      VMA       LMA       File off  Algn
  0 .data         000000be  00800200  00003564  000035f8  2**0
                  CONTENTS, ALLOC, LOAD, DATA
  1 .text         00003564  00000000  00000000  00000094  2**1
                  CONTENTS, ALLOC, LOAD, READONLY, CODE
  2 .bss          00000028  008002be  008002be  000036b6  2**0
                  ALLOC
  3 .stab         00001c50  00000000  00000000  000036b8  2**2
                  CONTENTS, READONLY, DEBUGGING
  4 .stabstr      0000068a  00000000  00000000  00005308  2**0
                  CONTENTS, READONLY, DEBUGGING
  5 .debug_aranges 00000020  00000000  00000000  00005992  2**0
                  CONTENTS, READONLY, DEBUGGING
  6 .debug_pubnames 00000279  00000000  00000000  000059b2  2**0
                  CONTENTS, READONLY, DEBUGGING
  7 .debug_info   000018bc  00000000  00000000  00005c2b  2**0
                  CONTENTS, READONLY, DEBUGGING
  8 .debug_abbrev 0000044c  00000000  00000000  000074e7  2**0
                  CONTENTS, READONLY, DEBUGGING
  9 .debug_line   00001a17  00000000  00000000  00007933  2**0
                  CONTENTS, READONLY, DEBUGGING
 10 .debug_frame  000001f0  00000000  00000000  0000934c  2**2
                  CONTENTS, READONLY, DEBUGGING
 11 .debug_str    00000996  00000000  00000000  0000953c  2**0
                  CONTENTS, READONLY, DEBUGGING
 12 .debug_loc    000016c1  00000000  00000000  00009ed2  2**0
                  CONTENTS, READONLY, DEBUGGING
 13 .debug_pubtypes 0000007c  00000000  00000000  0000b593  2**0
                  CONTENTS, READONLY, DEBUGGING
 14 .debug_ranges 00000180  00000000  00000000  0000b60f  2**0
                  CONTENTS, READONLY, DEBUGGING

Disassembly of section .text:

00000000 <__vectors>:
       0:	0c 94 73 00 	jmp	0xe6	; 0xe6 <__ctors_end>
       4:	0c 94 11 07 	jmp	0xe22	; 0xe22 <__vector_1>
       8:	0c 94 3c 07 	jmp	0xe78	; 0xe78 <__vector_2>
       c:	0c 94 67 07 	jmp	0xece	; 0xece <__vector_3>
      10:	0c 94 92 07 	jmp	0xf24	; 0xf24 <__vector_4>
      14:	0c 94 bd 07 	jmp	0xf7a	; 0xf7a <__vector_5>
      18:	0c 94 e8 07 	jmp	0xfd0	; 0xfd0 <__vector_6>
      1c:	0c 94 13 08 	jmp	0x1026	; 0x1026 <__vector_7>
      20:	0c 94 3e 08 	jmp	0x107c	; 0x107c <__vector_8>
      24:	0c 94 a4 00 	jmp	0x148	; 0x148 <__bad_interrupt>
      28:	0c 94 a4 00 	jmp	0x148	; 0x148 <__bad_interrupt>
      2c:	0c 94 a4 00 	jmp	0x148	; 0x148 <__bad_interrupt>
      30:	0c 94 a4 00 	jmp	0x148	; 0x148 <__bad_interrupt>
      34:	0c 94 16 05 	jmp	0xa2c	; 0xa2c <__vector_13>
      38:	0c 94 a4 00 	jmp	0x148	; 0x148 <__bad_interrupt>
      3c:	0c 94 a4 00 	jmp	0x148	; 0x148 <__bad_interrupt>
      40:	0c 94 a4 00 	jmp	0x148	; 0x148 <__bad_interrupt>
      44:	0c 94 a4 00 	jmp	0x148	; 0x148 <__bad_interrupt>
      48:	0c 94 a4 00 	jmp	0x148	; 0x148 <__bad_interrupt>
      4c:	0c 94 a4 00 	jmp	0x148	; 0x148 <__bad_interrupt>
      50:	0c 94 a4 00 	jmp	0x148	; 0x148 <__bad_interrupt>
      54:	0c 94 a4 00 	jmp	0x148	; 0x148 <__bad_interrupt>
      58:	0c 94 a4 00 	jmp	0x148	; 0x148 <__bad_interrupt>
      5c:	0c 94 a4 00 	jmp	0x148	; 0x148 <__bad_interrupt>
      60:	0c 94 a4 00 	jmp	0x148	; 0x148 <__bad_interrupt>
      64:	0c 94 a4 00 	jmp	0x148	; 0x148 <__bad_interrupt>
      68:	0c 94 a4 00 	jmp	0x148	; 0x148 <__bad_interrupt>
      6c:	0c 94 a4 00 	jmp	0x148	; 0x148 <__bad_interrupt>
      70:	0c 94 a4 00 	jmp	0x148	; 0x148 <__bad_interrupt>
      74:	0c 94 a4 00 	jmp	0x148	; 0x148 <__bad_interrupt>
      78:	0c 94 a4 00 	jmp	0x148	; 0x148 <__bad_interrupt>
      7c:	0c 94 a4 00 	jmp	0x148	; 0x148 <__bad_interrupt>
      80:	0c 94 a4 00 	jmp	0x148	; 0x148 <__bad_interrupt>
      84:	0c 94 a4 00 	jmp	0x148	; 0x148 <__bad_interrupt>
      88:	0c 94 a4 00 	jmp	0x148	; 0x148 <__bad_interrupt>
      8c:	0c 94 a4 00 	jmp	0x148	; 0x148 <__bad_interrupt>
      90:	0c 94 a4 00 	jmp	0x148	; 0x148 <__bad_interrupt>
      94:	0c 94 a4 00 	jmp	0x148	; 0x148 <__bad_interrupt>
      98:	0c 94 a4 00 	jmp	0x148	; 0x148 <__bad_interrupt>
      9c:	0c 94 a4 00 	jmp	0x148	; 0x148 <__bad_interrupt>
      a0:	0c 94 a4 00 	jmp	0x148	; 0x148 <__bad_interrupt>
      a4:	0c 94 a4 00 	jmp	0x148	; 0x148 <__bad_interrupt>
      a8:	0c 94 a4 00 	jmp	0x148	; 0x148 <__bad_interrupt>
      ac:	0c 94 a4 00 	jmp	0x148	; 0x148 <__bad_interrupt>
      b0:	0c 94 a4 00 	jmp	0x148	; 0x148 <__bad_interrupt>
      b4:	0c 94 a4 00 	jmp	0x148	; 0x148 <__bad_interrupt>
      b8:	0c 94 a4 00 	jmp	0x148	; 0x148 <__bad_interrupt>
      bc:	0c 94 a4 00 	jmp	0x148	; 0x148 <__bad_interrupt>
      c0:	0c 94 a4 00 	jmp	0x148	; 0x148 <__bad_interrupt>
      c4:	0c 94 a4 00 	jmp	0x148	; 0x148 <__bad_interrupt>
      c8:	0c 94 a4 00 	jmp	0x148	; 0x148 <__bad_interrupt>
      cc:	0c 94 a4 00 	jmp	0x148	; 0x148 <__bad_interrupt>
      d0:	0c 94 a4 00 	jmp	0x148	; 0x148 <__bad_interrupt>
      d4:	0c 94 a4 00 	jmp	0x148	; 0x148 <__bad_interrupt>
      d8:	0c 94 a4 00 	jmp	0x148	; 0x148 <__bad_interrupt>
      dc:	0c 94 a4 00 	jmp	0x148	; 0x148 <__bad_interrupt>
      e0:	0c 94 a4 00 	jmp	0x148	; 0x148 <__bad_interrupt>

000000e4 <__ctors_start>:
      e4:	81 18       	sub	r8, r1

000000e6 <__ctors_end>:
      e6:	11 24       	eor	r1, r1
      e8:	1f be       	out	0x3f, r1	; 63
      ea:	cf ef       	ldi	r28, 0xFF	; 255
      ec:	d1 e2       	ldi	r29, 0x21	; 33
      ee:	de bf       	out	0x3e, r29	; 62
      f0:	cd bf       	out	0x3d, r28	; 61
      f2:	00 e0       	ldi	r16, 0x00	; 0
      f4:	0c bf       	out	0x3c, r16	; 60

000000f6 <__do_copy_data>:
      f6:	12 e0       	ldi	r17, 0x02	; 2
      f8:	a0 e0       	ldi	r26, 0x00	; 0
      fa:	b2 e0       	ldi	r27, 0x02	; 2
      fc:	e4 e6       	ldi	r30, 0x64	; 100
      fe:	f5 e3       	ldi	r31, 0x35	; 53
     100:	00 e0       	ldi	r16, 0x00	; 0
     102:	0b bf       	out	0x3b, r16	; 59
     104:	02 c0       	rjmp	.+4      	; 0x10a <__do_copy_data+0x14>
     106:	07 90       	elpm	r0, Z+
     108:	0d 92       	st	X+, r0
     10a:	ae 3b       	cpi	r26, 0xBE	; 190
     10c:	b1 07       	cpc	r27, r17
     10e:	d9 f7       	brne	.-10     	; 0x106 <__do_copy_data+0x10>

00000110 <__do_clear_bss>:
     110:	12 e0       	ldi	r17, 0x02	; 2
     112:	ae eb       	ldi	r26, 0xBE	; 190
     114:	b2 e0       	ldi	r27, 0x02	; 2
     116:	01 c0       	rjmp	.+2      	; 0x11a <.do_clear_bss_start>

00000118 <.do_clear_bss_loop>:
     118:	1d 92       	st	X+, r1

0000011a <.do_clear_bss_start>:
     11a:	a6 3e       	cpi	r26, 0xE6	; 230
     11c:	b1 07       	cpc	r27, r17
     11e:	e1 f7       	brne	.-8      	; 0x118 <.do_clear_bss_loop>

00000120 <__do_global_ctors>:
     120:	10 e0       	ldi	r17, 0x00	; 0
     122:	00 e0       	ldi	r16, 0x00	; 0
     124:	c6 ee       	ldi	r28, 0xE6	; 230
     126:	d0 e0       	ldi	r29, 0x00	; 0
     128:	40 e0       	ldi	r20, 0x00	; 0
     12a:	06 c0       	rjmp	.+12     	; 0x138 <__do_global_ctors+0x18>
     12c:	22 97       	sbiw	r28, 0x02	; 2
     12e:	41 09       	sbc	r20, r1
     130:	fe 01       	movw	r30, r28
     132:	4b bf       	out	0x3b, r20	; 59
     134:	0e 94 ac 1a 	call	0x3558	; 0x3558 <__tablejump_elpm__>
     138:	c4 3e       	cpi	r28, 0xE4	; 228
     13a:	d1 07       	cpc	r29, r17
     13c:	40 07       	cpc	r20, r16
     13e:	b1 f7       	brne	.-20     	; 0x12c <__do_global_ctors+0xc>
     140:	0e 94 7c 18 	call	0x30f8	; 0x30f8 <main>
     144:	0c 94 b0 1a 	jmp	0x3560	; 0x3560 <_exit>

00000148 <__bad_interrupt>:
     148:	0c 94 00 00 	jmp	0	; 0x0 <__vectors>

0000014c <_Z7pinModehh>:
//Functions:

void pinMode(uint8_t pInno,uint8_t mOde)
{
	int l;
  	if(mOde==0)
     14c:	66 23       	and	r22, r22
     14e:	09 f0       	breq	.+2      	; 0x152 <_Z7pinModehh+0x6>
     150:	b8 c0       	rjmp	.+368    	; 0x2c2 <_Z7pinModehh+0x176>
    {
    	switch(rEgister[pInno]){
     152:	90 e0       	ldi	r25, 0x00	; 0
     154:	fc 01       	movw	r30, r24
     156:	e8 58       	subi	r30, 0x88	; 136
     158:	fd 4f       	sbci	r31, 0xFD	; 253
     15a:	20 81       	ld	r18, Z
     15c:	25 36       	cpi	r18, 0x65	; 101
     15e:	09 f4       	brne	.+2      	; 0x162 <_Z7pinModehh+0x16>
     160:	50 c0       	rjmp	.+160    	; 0x202 <_Z7pinModehh+0xb6>
     162:	26 36       	cpi	r18, 0x66	; 102
     164:	40 f4       	brcc	.+16     	; 0x176 <_Z7pinModehh+0x2a>
     166:	23 36       	cpi	r18, 0x63	; 99
     168:	41 f1       	breq	.+80     	; 0x1ba <_Z7pinModehh+0x6e>
     16a:	24 36       	cpi	r18, 0x64	; 100
     16c:	c0 f5       	brcc	.+112    	; 0x1de <_Z7pinModehh+0x92>
     16e:	22 36       	cpi	r18, 0x62	; 98
     170:	09 f0       	breq	.+2      	; 0x174 <_Z7pinModehh+0x28>
     172:	5e c1       	rjmp	.+700    	; 0x430 <_Z7pinModehh+0x2e4>
     174:	10 c0       	rjmp	.+32     	; 0x196 <_Z7pinModehh+0x4a>
     176:	28 36       	cpi	r18, 0x68	; 104
     178:	09 f4       	brne	.+2      	; 0x17c <_Z7pinModehh+0x30>
     17a:	67 c0       	rjmp	.+206    	; 0x24a <_Z7pinModehh+0xfe>
     17c:	29 36       	cpi	r18, 0x69	; 105
     17e:	20 f4       	brcc	.+8      	; 0x188 <_Z7pinModehh+0x3c>
     180:	27 36       	cpi	r18, 0x67	; 103
     182:	09 f0       	breq	.+2      	; 0x186 <_Z7pinModehh+0x3a>
     184:	55 c1       	rjmp	.+682    	; 0x430 <_Z7pinModehh+0x2e4>
     186:	4f c0       	rjmp	.+158    	; 0x226 <_Z7pinModehh+0xda>
     188:	2a 36       	cpi	r18, 0x6A	; 106
     18a:	09 f4       	brne	.+2      	; 0x18e <_Z7pinModehh+0x42>
     18c:	72 c0       	rjmp	.+228    	; 0x272 <_Z7pinModehh+0x126>
     18e:	2c 36       	cpi	r18, 0x6C	; 108
     190:	09 f0       	breq	.+2      	; 0x194 <_Z7pinModehh+0x48>
     192:	4e c1       	rjmp	.+668    	; 0x430 <_Z7pinModehh+0x2e4>
     194:	82 c0       	rjmp	.+260    	; 0x29a <_Z7pinModehh+0x14e>

          	case'b':
                  DDRB&=~(1<<bIt[pInno]);
     196:	24 b1       	in	r18, 0x04	; 4
     198:	fc 01       	movw	r30, r24
     19a:	ee 0f       	add	r30, r30
     19c:	ff 1f       	adc	r31, r31
     19e:	e0 50       	subi	r30, 0x00	; 0
     1a0:	fe 4f       	sbci	r31, 0xFE	; 254
     1a2:	81 e0       	ldi	r24, 0x01	; 1
     1a4:	90 e0       	ldi	r25, 0x00	; 0
     1a6:	00 80       	ld	r0, Z
     1a8:	02 c0       	rjmp	.+4      	; 0x1ae <_Z7pinModehh+0x62>
     1aa:	88 0f       	add	r24, r24
     1ac:	99 1f       	adc	r25, r25
     1ae:	0a 94       	dec	r0
     1b0:	e2 f7       	brpl	.-8      	; 0x1aa <_Z7pinModehh+0x5e>
     1b2:	80 95       	com	r24
     1b4:	82 23       	and	r24, r18
     1b6:	84 b9       	out	0x04, r24	; 4
		           break;
     1b8:	08 95       	ret
          	case'c':
                 DDRC&=~(1<<bIt[pInno]);
     1ba:	27 b1       	in	r18, 0x07	; 7
     1bc:	fc 01       	movw	r30, r24
     1be:	ee 0f       	add	r30, r30
     1c0:	ff 1f       	adc	r31, r31
     1c2:	e0 50       	subi	r30, 0x00	; 0
     1c4:	fe 4f       	sbci	r31, 0xFE	; 254
     1c6:	81 e0       	ldi	r24, 0x01	; 1
     1c8:	90 e0       	ldi	r25, 0x00	; 0
     1ca:	00 80       	ld	r0, Z
     1cc:	02 c0       	rjmp	.+4      	; 0x1d2 <_Z7pinModehh+0x86>
     1ce:	88 0f       	add	r24, r24
     1d0:	99 1f       	adc	r25, r25
     1d2:	0a 94       	dec	r0
     1d4:	e2 f7       	brpl	.-8      	; 0x1ce <_Z7pinModehh+0x82>
     1d6:	80 95       	com	r24
     1d8:	82 23       	and	r24, r18
     1da:	87 b9       	out	0x07, r24	; 7
		          break;
     1dc:	08 95       	ret
          	case'd':
                 DDRD&=~(1<<bIt[pInno]);
     1de:	2a b1       	in	r18, 0x0a	; 10
     1e0:	fc 01       	movw	r30, r24
     1e2:	ee 0f       	add	r30, r30
     1e4:	ff 1f       	adc	r31, r31
     1e6:	e0 50       	subi	r30, 0x00	; 0
     1e8:	fe 4f       	sbci	r31, 0xFE	; 254
     1ea:	81 e0       	ldi	r24, 0x01	; 1
     1ec:	90 e0       	ldi	r25, 0x00	; 0
     1ee:	00 80       	ld	r0, Z
     1f0:	02 c0       	rjmp	.+4      	; 0x1f6 <_Z7pinModehh+0xaa>
     1f2:	88 0f       	add	r24, r24
     1f4:	99 1f       	adc	r25, r25
     1f6:	0a 94       	dec	r0
     1f8:	e2 f7       	brpl	.-8      	; 0x1f2 <_Z7pinModehh+0xa6>
     1fa:	80 95       	com	r24
     1fc:	82 23       	and	r24, r18
     1fe:	8a b9       	out	0x0a, r24	; 10
		          break;
     200:	08 95       	ret
	      	case'e':
                  DDRE&=~(1<<bIt[pInno]);
     202:	2d b1       	in	r18, 0x0d	; 13
     204:	fc 01       	movw	r30, r24
     206:	ee 0f       	add	r30, r30
     208:	ff 1f       	adc	r31, r31
     20a:	e0 50       	subi	r30, 0x00	; 0
     20c:	fe 4f       	sbci	r31, 0xFE	; 254
     20e:	81 e0       	ldi	r24, 0x01	; 1
     210:	90 e0       	ldi	r25, 0x00	; 0
     212:	00 80       	ld	r0, Z
     214:	02 c0       	rjmp	.+4      	; 0x21a <_Z7pinModehh+0xce>
     216:	88 0f       	add	r24, r24
     218:	99 1f       	adc	r25, r25
     21a:	0a 94       	dec	r0
     21c:	e2 f7       	brpl	.-8      	; 0x216 <_Z7pinModehh+0xca>
     21e:	80 95       	com	r24
     220:	82 23       	and	r24, r18
     222:	8d b9       	out	0x0d, r24	; 13
		           break;
     224:	08 95       	ret
		    case'g':
                  DDRG&=~(1<<bIt[pInno]);
     226:	23 b3       	in	r18, 0x13	; 19
     228:	fc 01       	movw	r30, r24
     22a:	ee 0f       	add	r30, r30
     22c:	ff 1f       	adc	r31, r31
     22e:	e0 50       	subi	r30, 0x00	; 0
     230:	fe 4f       	sbci	r31, 0xFE	; 254
     232:	81 e0       	ldi	r24, 0x01	; 1
     234:	90 e0       	ldi	r25, 0x00	; 0
     236:	00 80       	ld	r0, Z
     238:	02 c0       	rjmp	.+4      	; 0x23e <_Z7pinModehh+0xf2>
     23a:	88 0f       	add	r24, r24
     23c:	99 1f       	adc	r25, r25
     23e:	0a 94       	dec	r0
     240:	e2 f7       	brpl	.-8      	; 0x23a <_Z7pinModehh+0xee>
     242:	80 95       	com	r24
     244:	82 23       	and	r24, r18
     246:	83 bb       	out	0x13, r24	; 19
		           break;
     248:	08 95       	ret
			case'h':
                  DDRH&=~(1<<bIt[pInno]);
     24a:	e1 e0       	ldi	r30, 0x01	; 1
     24c:	f1 e0       	ldi	r31, 0x01	; 1
     24e:	20 81       	ld	r18, Z
     250:	dc 01       	movw	r26, r24
     252:	aa 0f       	add	r26, r26
     254:	bb 1f       	adc	r27, r27
     256:	a0 50       	subi	r26, 0x00	; 0
     258:	be 4f       	sbci	r27, 0xFE	; 254
     25a:	81 e0       	ldi	r24, 0x01	; 1
     25c:	90 e0       	ldi	r25, 0x00	; 0
     25e:	0c 90       	ld	r0, X
     260:	02 c0       	rjmp	.+4      	; 0x266 <_Z7pinModehh+0x11a>
     262:	88 0f       	add	r24, r24
     264:	99 1f       	adc	r25, r25
     266:	0a 94       	dec	r0
     268:	e2 f7       	brpl	.-8      	; 0x262 <_Z7pinModehh+0x116>
     26a:	80 95       	com	r24
     26c:	82 23       	and	r24, r18
     26e:	80 83       	st	Z, r24
				  break;
     270:	08 95       	ret
		    case'j':
                  DDRJ&=~(1<<bIt[pInno]);
     272:	e4 e0       	ldi	r30, 0x04	; 4
     274:	f1 e0       	ldi	r31, 0x01	; 1
     276:	20 81       	ld	r18, Z
     278:	dc 01       	movw	r26, r24
     27a:	aa 0f       	add	r26, r26
     27c:	bb 1f       	adc	r27, r27
     27e:	a0 50       	subi	r26, 0x00	; 0
     280:	be 4f       	sbci	r27, 0xFE	; 254
     282:	81 e0       	ldi	r24, 0x01	; 1
     284:	90 e0       	ldi	r25, 0x00	; 0
     286:	0c 90       	ld	r0, X
     288:	02 c0       	rjmp	.+4      	; 0x28e <_Z7pinModehh+0x142>
     28a:	88 0f       	add	r24, r24
     28c:	99 1f       	adc	r25, r25
     28e:	0a 94       	dec	r0
     290:	e2 f7       	brpl	.-8      	; 0x28a <_Z7pinModehh+0x13e>
     292:	80 95       	com	r24
     294:	82 23       	and	r24, r18
     296:	80 83       	st	Z, r24
		          break;
     298:	08 95       	ret
			case'l':
                  DDRL&=~(1<<bIt[pInno]);
     29a:	ea e0       	ldi	r30, 0x0A	; 10
     29c:	f1 e0       	ldi	r31, 0x01	; 1
     29e:	20 81       	ld	r18, Z
     2a0:	dc 01       	movw	r26, r24
     2a2:	aa 0f       	add	r26, r26
     2a4:	bb 1f       	adc	r27, r27
     2a6:	a0 50       	subi	r26, 0x00	; 0
     2a8:	be 4f       	sbci	r27, 0xFE	; 254
     2aa:	81 e0       	ldi	r24, 0x01	; 1
     2ac:	90 e0       	ldi	r25, 0x00	; 0
     2ae:	0c 90       	ld	r0, X
     2b0:	02 c0       	rjmp	.+4      	; 0x2b6 <_Z7pinModehh+0x16a>
     2b2:	88 0f       	add	r24, r24
     2b4:	99 1f       	adc	r25, r25
     2b6:	0a 94       	dec	r0
     2b8:	e2 f7       	brpl	.-8      	; 0x2b2 <_Z7pinModehh+0x166>
     2ba:	80 95       	com	r24
     2bc:	82 23       	and	r24, r18
     2be:	80 83       	st	Z, r24
		          break;
     2c0:	08 95       	ret
     	}
	}
	else{
			switch(rEgister[pInno])
     2c2:	90 e0       	ldi	r25, 0x00	; 0
     2c4:	fc 01       	movw	r30, r24
     2c6:	e8 58       	subi	r30, 0x88	; 136
     2c8:	fd 4f       	sbci	r31, 0xFD	; 253
     2ca:	20 81       	ld	r18, Z
     2cc:	25 36       	cpi	r18, 0x65	; 101
     2ce:	09 f4       	brne	.+2      	; 0x2d2 <_Z7pinModehh+0x186>
     2d0:	50 c0       	rjmp	.+160    	; 0x372 <_Z7pinModehh+0x226>
     2d2:	26 36       	cpi	r18, 0x66	; 102
     2d4:	40 f4       	brcc	.+16     	; 0x2e6 <_Z7pinModehh+0x19a>
     2d6:	23 36       	cpi	r18, 0x63	; 99
     2d8:	41 f1       	breq	.+80     	; 0x32a <_Z7pinModehh+0x1de>
     2da:	24 36       	cpi	r18, 0x64	; 100
     2dc:	c0 f5       	brcc	.+112    	; 0x34e <_Z7pinModehh+0x202>
     2de:	22 36       	cpi	r18, 0x62	; 98
     2e0:	09 f0       	breq	.+2      	; 0x2e4 <_Z7pinModehh+0x198>
     2e2:	a6 c0       	rjmp	.+332    	; 0x430 <_Z7pinModehh+0x2e4>
     2e4:	10 c0       	rjmp	.+32     	; 0x306 <_Z7pinModehh+0x1ba>
     2e6:	28 36       	cpi	r18, 0x68	; 104
     2e8:	09 f4       	brne	.+2      	; 0x2ec <_Z7pinModehh+0x1a0>
     2ea:	67 c0       	rjmp	.+206    	; 0x3ba <_Z7pinModehh+0x26e>
     2ec:	29 36       	cpi	r18, 0x69	; 105
     2ee:	20 f4       	brcc	.+8      	; 0x2f8 <_Z7pinModehh+0x1ac>
     2f0:	27 36       	cpi	r18, 0x67	; 103
     2f2:	09 f0       	breq	.+2      	; 0x2f6 <_Z7pinModehh+0x1aa>
     2f4:	9d c0       	rjmp	.+314    	; 0x430 <_Z7pinModehh+0x2e4>
     2f6:	4f c0       	rjmp	.+158    	; 0x396 <_Z7pinModehh+0x24a>
     2f8:	2a 36       	cpi	r18, 0x6A	; 106
     2fa:	09 f4       	brne	.+2      	; 0x2fe <_Z7pinModehh+0x1b2>
     2fc:	72 c0       	rjmp	.+228    	; 0x3e2 <_Z7pinModehh+0x296>
     2fe:	2c 36       	cpi	r18, 0x6C	; 108
     300:	09 f0       	breq	.+2      	; 0x304 <_Z7pinModehh+0x1b8>
     302:	96 c0       	rjmp	.+300    	; 0x430 <_Z7pinModehh+0x2e4>
     304:	82 c0       	rjmp	.+260    	; 0x40a <_Z7pinModehh+0x2be>
         	{

	        	case'b':
	            	DDRB|=(1<<bIt[pInno]);
     306:	44 b1       	in	r20, 0x04	; 4
     308:	fc 01       	movw	r30, r24
     30a:	ee 0f       	add	r30, r30
     30c:	ff 1f       	adc	r31, r31
     30e:	e0 50       	subi	r30, 0x00	; 0
     310:	fe 4f       	sbci	r31, 0xFE	; 254
     312:	21 e0       	ldi	r18, 0x01	; 1
     314:	30 e0       	ldi	r19, 0x00	; 0
     316:	c9 01       	movw	r24, r18
     318:	00 80       	ld	r0, Z
     31a:	02 c0       	rjmp	.+4      	; 0x320 <_Z7pinModehh+0x1d4>
     31c:	88 0f       	add	r24, r24
     31e:	99 1f       	adc	r25, r25
     320:	0a 94       	dec	r0
     322:	e2 f7       	brpl	.-8      	; 0x31c <_Z7pinModehh+0x1d0>
     324:	84 2b       	or	r24, r20
     326:	84 b9       	out	0x04, r24	; 4
			    	break;
     328:	08 95       	ret
	          	case'c':
	                DDRC|=(1<<bIt[pInno]);
     32a:	47 b1       	in	r20, 0x07	; 7
     32c:	fc 01       	movw	r30, r24
     32e:	ee 0f       	add	r30, r30
     330:	ff 1f       	adc	r31, r31
     332:	e0 50       	subi	r30, 0x00	; 0
     334:	fe 4f       	sbci	r31, 0xFE	; 254
     336:	21 e0       	ldi	r18, 0x01	; 1
     338:	30 e0       	ldi	r19, 0x00	; 0
     33a:	c9 01       	movw	r24, r18
     33c:	00 80       	ld	r0, Z
     33e:	02 c0       	rjmp	.+4      	; 0x344 <_Z7pinModehh+0x1f8>
     340:	88 0f       	add	r24, r24
     342:	99 1f       	adc	r25, r25
     344:	0a 94       	dec	r0
     346:	e2 f7       	brpl	.-8      	; 0x340 <_Z7pinModehh+0x1f4>
     348:	84 2b       	or	r24, r20
     34a:	87 b9       	out	0x07, r24	; 7
			        break;
     34c:	08 95       	ret
	          	case'd':
	                DDRD|=(1<<bIt[pInno]);
     34e:	4a b1       	in	r20, 0x0a	; 10
     350:	fc 01       	movw	r30, r24
     352:	ee 0f       	add	r30, r30
     354:	ff 1f       	adc	r31, r31
     356:	e0 50       	subi	r30, 0x00	; 0
     358:	fe 4f       	sbci	r31, 0xFE	; 254
     35a:	21 e0       	ldi	r18, 0x01	; 1
     35c:	30 e0       	ldi	r19, 0x00	; 0
     35e:	c9 01       	movw	r24, r18
     360:	00 80       	ld	r0, Z
     362:	02 c0       	rjmp	.+4      	; 0x368 <_Z7pinModehh+0x21c>
     364:	88 0f       	add	r24, r24
     366:	99 1f       	adc	r25, r25
     368:	0a 94       	dec	r0
     36a:	e2 f7       	brpl	.-8      	; 0x364 <_Z7pinModehh+0x218>
     36c:	84 2b       	or	r24, r20
     36e:	8a b9       	out	0x0a, r24	; 10
			        break;
     370:	08 95       	ret
		      	case'e':
	                DDRE|=(1<<bIt[pInno]);
     372:	4d b1       	in	r20, 0x0d	; 13
     374:	fc 01       	movw	r30, r24
     376:	ee 0f       	add	r30, r30
     378:	ff 1f       	adc	r31, r31
     37a:	e0 50       	subi	r30, 0x00	; 0
     37c:	fe 4f       	sbci	r31, 0xFE	; 254
     37e:	21 e0       	ldi	r18, 0x01	; 1
     380:	30 e0       	ldi	r19, 0x00	; 0
     382:	c9 01       	movw	r24, r18
     384:	00 80       	ld	r0, Z
     386:	02 c0       	rjmp	.+4      	; 0x38c <_Z7pinModehh+0x240>
     388:	88 0f       	add	r24, r24
     38a:	99 1f       	adc	r25, r25
     38c:	0a 94       	dec	r0
     38e:	e2 f7       	brpl	.-8      	; 0x388 <_Z7pinModehh+0x23c>
     390:	84 2b       	or	r24, r20
     392:	8d b9       	out	0x0d, r24	; 13
			        break;
     394:	08 95       	ret
			    case'g':
	                DDRG|=(1<<bIt[pInno]);
     396:	43 b3       	in	r20, 0x13	; 19
     398:	fc 01       	movw	r30, r24
     39a:	ee 0f       	add	r30, r30
     39c:	ff 1f       	adc	r31, r31
     39e:	e0 50       	subi	r30, 0x00	; 0
     3a0:	fe 4f       	sbci	r31, 0xFE	; 254
     3a2:	21 e0       	ldi	r18, 0x01	; 1
     3a4:	30 e0       	ldi	r19, 0x00	; 0
     3a6:	c9 01       	movw	r24, r18
     3a8:	00 80       	ld	r0, Z
     3aa:	02 c0       	rjmp	.+4      	; 0x3b0 <_Z7pinModehh+0x264>
     3ac:	88 0f       	add	r24, r24
     3ae:	99 1f       	adc	r25, r25
     3b0:	0a 94       	dec	r0
     3b2:	e2 f7       	brpl	.-8      	; 0x3ac <_Z7pinModehh+0x260>
     3b4:	84 2b       	or	r24, r20
     3b6:	83 bb       	out	0x13, r24	; 19
			        break;
     3b8:	08 95       	ret
			 	case'h':
	                DDRH|=(1<<bIt[pInno]);
     3ba:	e1 e0       	ldi	r30, 0x01	; 1
     3bc:	f1 e0       	ldi	r31, 0x01	; 1
     3be:	40 81       	ld	r20, Z
     3c0:	dc 01       	movw	r26, r24
     3c2:	aa 0f       	add	r26, r26
     3c4:	bb 1f       	adc	r27, r27
     3c6:	a0 50       	subi	r26, 0x00	; 0
     3c8:	be 4f       	sbci	r27, 0xFE	; 254
     3ca:	21 e0       	ldi	r18, 0x01	; 1
     3cc:	30 e0       	ldi	r19, 0x00	; 0
     3ce:	c9 01       	movw	r24, r18
     3d0:	0c 90       	ld	r0, X
     3d2:	02 c0       	rjmp	.+4      	; 0x3d8 <_Z7pinModehh+0x28c>
     3d4:	88 0f       	add	r24, r24
     3d6:	99 1f       	adc	r25, r25
     3d8:	0a 94       	dec	r0
     3da:	e2 f7       	brpl	.-8      	; 0x3d4 <_Z7pinModehh+0x288>
     3dc:	84 2b       	or	r24, r20
     3de:	80 83       	st	Z, r24
			        break;
     3e0:	08 95       	ret
			    case'j':
	                DDRJ|=(1<<bIt[pInno]);
     3e2:	e4 e0       	ldi	r30, 0x04	; 4
     3e4:	f1 e0       	ldi	r31, 0x01	; 1
     3e6:	40 81       	ld	r20, Z
     3e8:	dc 01       	movw	r26, r24
     3ea:	aa 0f       	add	r26, r26
     3ec:	bb 1f       	adc	r27, r27
     3ee:	a0 50       	subi	r26, 0x00	; 0
     3f0:	be 4f       	sbci	r27, 0xFE	; 254
     3f2:	21 e0       	ldi	r18, 0x01	; 1
     3f4:	30 e0       	ldi	r19, 0x00	; 0
     3f6:	c9 01       	movw	r24, r18
     3f8:	0c 90       	ld	r0, X
     3fa:	02 c0       	rjmp	.+4      	; 0x400 <_Z7pinModehh+0x2b4>
     3fc:	88 0f       	add	r24, r24
     3fe:	99 1f       	adc	r25, r25
     400:	0a 94       	dec	r0
     402:	e2 f7       	brpl	.-8      	; 0x3fc <_Z7pinModehh+0x2b0>
     404:	84 2b       	or	r24, r20
     406:	80 83       	st	Z, r24
			        break;
     408:	08 95       	ret
				case'l':
	                DDRL|=(1<<bIt[pInno]);
     40a:	ea e0       	ldi	r30, 0x0A	; 10
     40c:	f1 e0       	ldi	r31, 0x01	; 1
     40e:	40 81       	ld	r20, Z
     410:	dc 01       	movw	r26, r24
     412:	aa 0f       	add	r26, r26
     414:	bb 1f       	adc	r27, r27
     416:	a0 50       	subi	r26, 0x00	; 0
     418:	be 4f       	sbci	r27, 0xFE	; 254
     41a:	21 e0       	ldi	r18, 0x01	; 1
     41c:	30 e0       	ldi	r19, 0x00	; 0
     41e:	c9 01       	movw	r24, r18
     420:	0c 90       	ld	r0, X
     422:	02 c0       	rjmp	.+4      	; 0x428 <_Z7pinModehh+0x2dc>
     424:	88 0f       	add	r24, r24
     426:	99 1f       	adc	r25, r25
     428:	0a 94       	dec	r0
     42a:	e2 f7       	brpl	.-8      	; 0x424 <_Z7pinModehh+0x2d8>
     42c:	84 2b       	or	r24, r20
     42e:	80 83       	st	Z, r24
     430:	08 95       	ret

00000432 <_Z12digitalWritehh>:
	}
}

void digitalWrite (uint8_t pInno ,uint8_t mOde)
{
   if(mOde==0)
     432:	66 23       	and	r22, r22
     434:	09 f0       	breq	.+2      	; 0x438 <_Z12digitalWritehh+0x6>
     436:	b8 c0       	rjmp	.+368    	; 0x5a8 <_Z12digitalWritehh+0x176>
        { switch(rEgister[pInno])
     438:	90 e0       	ldi	r25, 0x00	; 0
     43a:	fc 01       	movw	r30, r24
     43c:	e8 58       	subi	r30, 0x88	; 136
     43e:	fd 4f       	sbci	r31, 0xFD	; 253
     440:	20 81       	ld	r18, Z
     442:	25 36       	cpi	r18, 0x65	; 101
     444:	09 f4       	brne	.+2      	; 0x448 <_Z12digitalWritehh+0x16>
     446:	50 c0       	rjmp	.+160    	; 0x4e8 <_Z12digitalWritehh+0xb6>
     448:	26 36       	cpi	r18, 0x66	; 102
     44a:	40 f4       	brcc	.+16     	; 0x45c <_Z12digitalWritehh+0x2a>
     44c:	23 36       	cpi	r18, 0x63	; 99
     44e:	41 f1       	breq	.+80     	; 0x4a0 <_Z12digitalWritehh+0x6e>
     450:	24 36       	cpi	r18, 0x64	; 100
     452:	c0 f5       	brcc	.+112    	; 0x4c4 <_Z12digitalWritehh+0x92>
     454:	22 36       	cpi	r18, 0x62	; 98
     456:	09 f0       	breq	.+2      	; 0x45a <_Z12digitalWritehh+0x28>
     458:	5e c1       	rjmp	.+700    	; 0x716 <_Z12digitalWritehh+0x2e4>
     45a:	10 c0       	rjmp	.+32     	; 0x47c <_Z12digitalWritehh+0x4a>
     45c:	28 36       	cpi	r18, 0x68	; 104
     45e:	09 f4       	brne	.+2      	; 0x462 <_Z12digitalWritehh+0x30>
     460:	67 c0       	rjmp	.+206    	; 0x530 <_Z12digitalWritehh+0xfe>
     462:	29 36       	cpi	r18, 0x69	; 105
     464:	20 f4       	brcc	.+8      	; 0x46e <_Z12digitalWritehh+0x3c>
     466:	27 36       	cpi	r18, 0x67	; 103
     468:	09 f0       	breq	.+2      	; 0x46c <_Z12digitalWritehh+0x3a>
     46a:	55 c1       	rjmp	.+682    	; 0x716 <_Z12digitalWritehh+0x2e4>
     46c:	4f c0       	rjmp	.+158    	; 0x50c <_Z12digitalWritehh+0xda>
     46e:	2a 36       	cpi	r18, 0x6A	; 106
     470:	09 f4       	brne	.+2      	; 0x474 <_Z12digitalWritehh+0x42>
     472:	72 c0       	rjmp	.+228    	; 0x558 <_Z12digitalWritehh+0x126>
     474:	2c 36       	cpi	r18, 0x6C	; 108
     476:	09 f0       	breq	.+2      	; 0x47a <_Z12digitalWritehh+0x48>
     478:	4e c1       	rjmp	.+668    	; 0x716 <_Z12digitalWritehh+0x2e4>
     47a:	82 c0       	rjmp	.+260    	; 0x580 <_Z12digitalWritehh+0x14e>
         {

	          case'b':
	                  PORTB&=~(1<<bIt[pInno]);
     47c:	25 b1       	in	r18, 0x05	; 5
     47e:	fc 01       	movw	r30, r24
     480:	ee 0f       	add	r30, r30
     482:	ff 1f       	adc	r31, r31
     484:	e0 50       	subi	r30, 0x00	; 0
     486:	fe 4f       	sbci	r31, 0xFE	; 254
     488:	81 e0       	ldi	r24, 0x01	; 1
     48a:	90 e0       	ldi	r25, 0x00	; 0
     48c:	00 80       	ld	r0, Z
     48e:	02 c0       	rjmp	.+4      	; 0x494 <_Z12digitalWritehh+0x62>
     490:	88 0f       	add	r24, r24
     492:	99 1f       	adc	r25, r25
     494:	0a 94       	dec	r0
     496:	e2 f7       	brpl	.-8      	; 0x490 <_Z12digitalWritehh+0x5e>
     498:	80 95       	com	r24
     49a:	82 23       	and	r24, r18
     49c:	85 b9       	out	0x05, r24	; 5
			           break;
     49e:	08 95       	ret
	          case'c':
	                 PORTB&=~(1<<bIt[pInno]);
     4a0:	25 b1       	in	r18, 0x05	; 5
     4a2:	fc 01       	movw	r30, r24
     4a4:	ee 0f       	add	r30, r30
     4a6:	ff 1f       	adc	r31, r31
     4a8:	e0 50       	subi	r30, 0x00	; 0
     4aa:	fe 4f       	sbci	r31, 0xFE	; 254
     4ac:	81 e0       	ldi	r24, 0x01	; 1
     4ae:	90 e0       	ldi	r25, 0x00	; 0
     4b0:	00 80       	ld	r0, Z
     4b2:	02 c0       	rjmp	.+4      	; 0x4b8 <_Z12digitalWritehh+0x86>
     4b4:	88 0f       	add	r24, r24
     4b6:	99 1f       	adc	r25, r25
     4b8:	0a 94       	dec	r0
     4ba:	e2 f7       	brpl	.-8      	; 0x4b4 <_Z12digitalWritehh+0x82>
     4bc:	80 95       	com	r24
     4be:	82 23       	and	r24, r18
     4c0:	85 b9       	out	0x05, r24	; 5
			          break;
     4c2:	08 95       	ret
	          case'd':
	                 PORTD&=~(1<<bIt[pInno]);
     4c4:	2b b1       	in	r18, 0x0b	; 11
     4c6:	fc 01       	movw	r30, r24
     4c8:	ee 0f       	add	r30, r30
     4ca:	ff 1f       	adc	r31, r31
     4cc:	e0 50       	subi	r30, 0x00	; 0
     4ce:	fe 4f       	sbci	r31, 0xFE	; 254
     4d0:	81 e0       	ldi	r24, 0x01	; 1
     4d2:	90 e0       	ldi	r25, 0x00	; 0
     4d4:	00 80       	ld	r0, Z
     4d6:	02 c0       	rjmp	.+4      	; 0x4dc <_Z12digitalWritehh+0xaa>
     4d8:	88 0f       	add	r24, r24
     4da:	99 1f       	adc	r25, r25
     4dc:	0a 94       	dec	r0
     4de:	e2 f7       	brpl	.-8      	; 0x4d8 <_Z12digitalWritehh+0xa6>
     4e0:	80 95       	com	r24
     4e2:	82 23       	and	r24, r18
     4e4:	8b b9       	out	0x0b, r24	; 11
			          break;
     4e6:	08 95       	ret

		      case'e':
	                  PORTE&=~(1<<bIt[pInno]);
     4e8:	2e b1       	in	r18, 0x0e	; 14
     4ea:	fc 01       	movw	r30, r24
     4ec:	ee 0f       	add	r30, r30
     4ee:	ff 1f       	adc	r31, r31
     4f0:	e0 50       	subi	r30, 0x00	; 0
     4f2:	fe 4f       	sbci	r31, 0xFE	; 254
     4f4:	81 e0       	ldi	r24, 0x01	; 1
     4f6:	90 e0       	ldi	r25, 0x00	; 0
     4f8:	00 80       	ld	r0, Z
     4fa:	02 c0       	rjmp	.+4      	; 0x500 <_Z12digitalWritehh+0xce>
     4fc:	88 0f       	add	r24, r24
     4fe:	99 1f       	adc	r25, r25
     500:	0a 94       	dec	r0
     502:	e2 f7       	brpl	.-8      	; 0x4fc <_Z12digitalWritehh+0xca>
     504:	80 95       	com	r24
     506:	82 23       	and	r24, r18
     508:	8e b9       	out	0x0e, r24	; 14
			           break;
     50a:	08 95       	ret

			     case'g':
	                  PORTG&=~(1<<bIt[pInno]);
     50c:	24 b3       	in	r18, 0x14	; 20
     50e:	fc 01       	movw	r30, r24
     510:	ee 0f       	add	r30, r30
     512:	ff 1f       	adc	r31, r31
     514:	e0 50       	subi	r30, 0x00	; 0
     516:	fe 4f       	sbci	r31, 0xFE	; 254
     518:	81 e0       	ldi	r24, 0x01	; 1
     51a:	90 e0       	ldi	r25, 0x00	; 0
     51c:	00 80       	ld	r0, Z
     51e:	02 c0       	rjmp	.+4      	; 0x524 <_Z12digitalWritehh+0xf2>
     520:	88 0f       	add	r24, r24
     522:	99 1f       	adc	r25, r25
     524:	0a 94       	dec	r0
     526:	e2 f7       	brpl	.-8      	; 0x520 <_Z12digitalWritehh+0xee>
     528:	80 95       	com	r24
     52a:	82 23       	and	r24, r18
     52c:	84 bb       	out	0x14, r24	; 20
			           break;
     52e:	08 95       	ret
			 case'h':
	                  PORTH&=~(1<<bIt[pInno]);
     530:	e2 e0       	ldi	r30, 0x02	; 2
     532:	f1 e0       	ldi	r31, 0x01	; 1
     534:	20 81       	ld	r18, Z
     536:	dc 01       	movw	r26, r24
     538:	aa 0f       	add	r26, r26
     53a:	bb 1f       	adc	r27, r27
     53c:	a0 50       	subi	r26, 0x00	; 0
     53e:	be 4f       	sbci	r27, 0xFE	; 254
     540:	81 e0       	ldi	r24, 0x01	; 1
     542:	90 e0       	ldi	r25, 0x00	; 0
     544:	0c 90       	ld	r0, X
     546:	02 c0       	rjmp	.+4      	; 0x54c <_Z12digitalWritehh+0x11a>
     548:	88 0f       	add	r24, r24
     54a:	99 1f       	adc	r25, r25
     54c:	0a 94       	dec	r0
     54e:	e2 f7       	brpl	.-8      	; 0x548 <_Z12digitalWritehh+0x116>
     550:	80 95       	com	r24
     552:	82 23       	and	r24, r18
     554:	80 83       	st	Z, r24
			           break;
     556:	08 95       	ret

			     case'j':
	                  PORTJ&=~(1<<bIt[pInno]);
     558:	e5 e0       	ldi	r30, 0x05	; 5
     55a:	f1 e0       	ldi	r31, 0x01	; 1
     55c:	20 81       	ld	r18, Z
     55e:	dc 01       	movw	r26, r24
     560:	aa 0f       	add	r26, r26
     562:	bb 1f       	adc	r27, r27
     564:	a0 50       	subi	r26, 0x00	; 0
     566:	be 4f       	sbci	r27, 0xFE	; 254
     568:	81 e0       	ldi	r24, 0x01	; 1
     56a:	90 e0       	ldi	r25, 0x00	; 0
     56c:	0c 90       	ld	r0, X
     56e:	02 c0       	rjmp	.+4      	; 0x574 <_Z12digitalWritehh+0x142>
     570:	88 0f       	add	r24, r24
     572:	99 1f       	adc	r25, r25
     574:	0a 94       	dec	r0
     576:	e2 f7       	brpl	.-8      	; 0x570 <_Z12digitalWritehh+0x13e>
     578:	80 95       	com	r24
     57a:	82 23       	and	r24, r18
     57c:	80 83       	st	Z, r24
			           break;
     57e:	08 95       	ret
				     case'l':
	                  PORTL&=~(1<<bIt[pInno]);
     580:	eb e0       	ldi	r30, 0x0B	; 11
     582:	f1 e0       	ldi	r31, 0x01	; 1
     584:	20 81       	ld	r18, Z
     586:	dc 01       	movw	r26, r24
     588:	aa 0f       	add	r26, r26
     58a:	bb 1f       	adc	r27, r27
     58c:	a0 50       	subi	r26, 0x00	; 0
     58e:	be 4f       	sbci	r27, 0xFE	; 254
     590:	81 e0       	ldi	r24, 0x01	; 1
     592:	90 e0       	ldi	r25, 0x00	; 0
     594:	0c 90       	ld	r0, X
     596:	02 c0       	rjmp	.+4      	; 0x59c <_Z12digitalWritehh+0x16a>
     598:	88 0f       	add	r24, r24
     59a:	99 1f       	adc	r25, r25
     59c:	0a 94       	dec	r0
     59e:	e2 f7       	brpl	.-8      	; 0x598 <_Z12digitalWritehh+0x166>
     5a0:	80 95       	com	r24
     5a2:	82 23       	and	r24, r18
     5a4:	80 83       	st	Z, r24
			           break;
     5a6:	08 95       	ret
	     }  }
	else{          switch(rEgister[pInno])
     5a8:	90 e0       	ldi	r25, 0x00	; 0
     5aa:	fc 01       	movw	r30, r24
     5ac:	e8 58       	subi	r30, 0x88	; 136
     5ae:	fd 4f       	sbci	r31, 0xFD	; 253
     5b0:	20 81       	ld	r18, Z
     5b2:	25 36       	cpi	r18, 0x65	; 101
     5b4:	09 f4       	brne	.+2      	; 0x5b8 <_Z12digitalWritehh+0x186>
     5b6:	50 c0       	rjmp	.+160    	; 0x658 <_Z12digitalWritehh+0x226>
     5b8:	26 36       	cpi	r18, 0x66	; 102
     5ba:	40 f4       	brcc	.+16     	; 0x5cc <_Z12digitalWritehh+0x19a>
     5bc:	23 36       	cpi	r18, 0x63	; 99
     5be:	41 f1       	breq	.+80     	; 0x610 <_Z12digitalWritehh+0x1de>
     5c0:	24 36       	cpi	r18, 0x64	; 100
     5c2:	c0 f5       	brcc	.+112    	; 0x634 <_Z12digitalWritehh+0x202>
     5c4:	22 36       	cpi	r18, 0x62	; 98
     5c6:	09 f0       	breq	.+2      	; 0x5ca <_Z12digitalWritehh+0x198>
     5c8:	a6 c0       	rjmp	.+332    	; 0x716 <_Z12digitalWritehh+0x2e4>
     5ca:	10 c0       	rjmp	.+32     	; 0x5ec <_Z12digitalWritehh+0x1ba>
     5cc:	28 36       	cpi	r18, 0x68	; 104
     5ce:	09 f4       	brne	.+2      	; 0x5d2 <_Z12digitalWritehh+0x1a0>
     5d0:	67 c0       	rjmp	.+206    	; 0x6a0 <_Z12digitalWritehh+0x26e>
     5d2:	29 36       	cpi	r18, 0x69	; 105
     5d4:	20 f4       	brcc	.+8      	; 0x5de <_Z12digitalWritehh+0x1ac>
     5d6:	27 36       	cpi	r18, 0x67	; 103
     5d8:	09 f0       	breq	.+2      	; 0x5dc <_Z12digitalWritehh+0x1aa>
     5da:	9d c0       	rjmp	.+314    	; 0x716 <_Z12digitalWritehh+0x2e4>
     5dc:	4f c0       	rjmp	.+158    	; 0x67c <_Z12digitalWritehh+0x24a>
     5de:	2a 36       	cpi	r18, 0x6A	; 106
     5e0:	09 f4       	brne	.+2      	; 0x5e4 <_Z12digitalWritehh+0x1b2>
     5e2:	72 c0       	rjmp	.+228    	; 0x6c8 <_Z12digitalWritehh+0x296>
     5e4:	2c 36       	cpi	r18, 0x6C	; 108
     5e6:	09 f0       	breq	.+2      	; 0x5ea <_Z12digitalWritehh+0x1b8>
     5e8:	96 c0       	rjmp	.+300    	; 0x716 <_Z12digitalWritehh+0x2e4>
     5ea:	82 c0       	rjmp	.+260    	; 0x6f0 <_Z12digitalWritehh+0x2be>
         {

	          case'b':
	                 PORTB|=(1<<bIt[pInno]);
     5ec:	45 b1       	in	r20, 0x05	; 5
     5ee:	fc 01       	movw	r30, r24
     5f0:	ee 0f       	add	r30, r30
     5f2:	ff 1f       	adc	r31, r31
     5f4:	e0 50       	subi	r30, 0x00	; 0
     5f6:	fe 4f       	sbci	r31, 0xFE	; 254
     5f8:	21 e0       	ldi	r18, 0x01	; 1
     5fa:	30 e0       	ldi	r19, 0x00	; 0
     5fc:	c9 01       	movw	r24, r18
     5fe:	00 80       	ld	r0, Z
     600:	02 c0       	rjmp	.+4      	; 0x606 <_Z12digitalWritehh+0x1d4>
     602:	88 0f       	add	r24, r24
     604:	99 1f       	adc	r25, r25
     606:	0a 94       	dec	r0
     608:	e2 f7       	brpl	.-8      	; 0x602 <_Z12digitalWritehh+0x1d0>
     60a:	84 2b       	or	r24, r20
     60c:	85 b9       	out	0x05, r24	; 5
			           break;
     60e:	08 95       	ret
	          case'c':
	                 PORTC|=(1<<bIt[pInno]);
     610:	48 b1       	in	r20, 0x08	; 8
     612:	fc 01       	movw	r30, r24
     614:	ee 0f       	add	r30, r30
     616:	ff 1f       	adc	r31, r31
     618:	e0 50       	subi	r30, 0x00	; 0
     61a:	fe 4f       	sbci	r31, 0xFE	; 254
     61c:	21 e0       	ldi	r18, 0x01	; 1
     61e:	30 e0       	ldi	r19, 0x00	; 0
     620:	c9 01       	movw	r24, r18
     622:	00 80       	ld	r0, Z
     624:	02 c0       	rjmp	.+4      	; 0x62a <_Z12digitalWritehh+0x1f8>
     626:	88 0f       	add	r24, r24
     628:	99 1f       	adc	r25, r25
     62a:	0a 94       	dec	r0
     62c:	e2 f7       	brpl	.-8      	; 0x626 <_Z12digitalWritehh+0x1f4>
     62e:	84 2b       	or	r24, r20
     630:	88 b9       	out	0x08, r24	; 8
			          break;
     632:	08 95       	ret
	          case'd':
	                 PORTD|=(1<<bIt[pInno]);
     634:	4b b1       	in	r20, 0x0b	; 11
     636:	fc 01       	movw	r30, r24
     638:	ee 0f       	add	r30, r30
     63a:	ff 1f       	adc	r31, r31
     63c:	e0 50       	subi	r30, 0x00	; 0
     63e:	fe 4f       	sbci	r31, 0xFE	; 254
     640:	21 e0       	ldi	r18, 0x01	; 1
     642:	30 e0       	ldi	r19, 0x00	; 0
     644:	c9 01       	movw	r24, r18
     646:	00 80       	ld	r0, Z
     648:	02 c0       	rjmp	.+4      	; 0x64e <_Z12digitalWritehh+0x21c>
     64a:	88 0f       	add	r24, r24
     64c:	99 1f       	adc	r25, r25
     64e:	0a 94       	dec	r0
     650:	e2 f7       	brpl	.-8      	; 0x64a <_Z12digitalWritehh+0x218>
     652:	84 2b       	or	r24, r20
     654:	8b b9       	out	0x0b, r24	; 11
			          break;
     656:	08 95       	ret

		      case'e':
	                  PORTE|=(1<<bIt[pInno]);
     658:	4e b1       	in	r20, 0x0e	; 14
     65a:	fc 01       	movw	r30, r24
     65c:	ee 0f       	add	r30, r30
     65e:	ff 1f       	adc	r31, r31
     660:	e0 50       	subi	r30, 0x00	; 0
     662:	fe 4f       	sbci	r31, 0xFE	; 254
     664:	21 e0       	ldi	r18, 0x01	; 1
     666:	30 e0       	ldi	r19, 0x00	; 0
     668:	c9 01       	movw	r24, r18
     66a:	00 80       	ld	r0, Z
     66c:	02 c0       	rjmp	.+4      	; 0x672 <_Z12digitalWritehh+0x240>
     66e:	88 0f       	add	r24, r24
     670:	99 1f       	adc	r25, r25
     672:	0a 94       	dec	r0
     674:	e2 f7       	brpl	.-8      	; 0x66e <_Z12digitalWritehh+0x23c>
     676:	84 2b       	or	r24, r20
     678:	8e b9       	out	0x0e, r24	; 14
			           break;
     67a:	08 95       	ret

			     case'g':
	                  PORTG|=(1<<bIt[pInno]);
     67c:	44 b3       	in	r20, 0x14	; 20
     67e:	fc 01       	movw	r30, r24
     680:	ee 0f       	add	r30, r30
     682:	ff 1f       	adc	r31, r31
     684:	e0 50       	subi	r30, 0x00	; 0
     686:	fe 4f       	sbci	r31, 0xFE	; 254
     688:	21 e0       	ldi	r18, 0x01	; 1
     68a:	30 e0       	ldi	r19, 0x00	; 0
     68c:	c9 01       	movw	r24, r18
     68e:	00 80       	ld	r0, Z
     690:	02 c0       	rjmp	.+4      	; 0x696 <_Z12digitalWritehh+0x264>
     692:	88 0f       	add	r24, r24
     694:	99 1f       	adc	r25, r25
     696:	0a 94       	dec	r0
     698:	e2 f7       	brpl	.-8      	; 0x692 <_Z12digitalWritehh+0x260>
     69a:	84 2b       	or	r24, r20
     69c:	84 bb       	out	0x14, r24	; 20
			           break;
     69e:	08 95       	ret
			 case'h':
	                  PORTH|=(1<<bIt[pInno]);
     6a0:	e2 e0       	ldi	r30, 0x02	; 2
     6a2:	f1 e0       	ldi	r31, 0x01	; 1
     6a4:	40 81       	ld	r20, Z
     6a6:	dc 01       	movw	r26, r24
     6a8:	aa 0f       	add	r26, r26
     6aa:	bb 1f       	adc	r27, r27
     6ac:	a0 50       	subi	r26, 0x00	; 0
     6ae:	be 4f       	sbci	r27, 0xFE	; 254
     6b0:	21 e0       	ldi	r18, 0x01	; 1
     6b2:	30 e0       	ldi	r19, 0x00	; 0
     6b4:	c9 01       	movw	r24, r18
     6b6:	0c 90       	ld	r0, X
     6b8:	02 c0       	rjmp	.+4      	; 0x6be <_Z12digitalWritehh+0x28c>
     6ba:	88 0f       	add	r24, r24
     6bc:	99 1f       	adc	r25, r25
     6be:	0a 94       	dec	r0
     6c0:	e2 f7       	brpl	.-8      	; 0x6ba <_Z12digitalWritehh+0x288>
     6c2:	84 2b       	or	r24, r20
     6c4:	80 83       	st	Z, r24
			           break;
     6c6:	08 95       	ret
		     /*case'i':
	                  PORTI|=(1<<bIt[pInno]);
			           break;*/
			     case'j':
	                  PORTJ|=(1<<bIt[pInno]);
     6c8:	e5 e0       	ldi	r30, 0x05	; 5
     6ca:	f1 e0       	ldi	r31, 0x01	; 1
     6cc:	40 81       	ld	r20, Z
     6ce:	dc 01       	movw	r26, r24
     6d0:	aa 0f       	add	r26, r26
     6d2:	bb 1f       	adc	r27, r27
     6d4:	a0 50       	subi	r26, 0x00	; 0
     6d6:	be 4f       	sbci	r27, 0xFE	; 254
     6d8:	21 e0       	ldi	r18, 0x01	; 1
     6da:	30 e0       	ldi	r19, 0x00	; 0
     6dc:	c9 01       	movw	r24, r18
     6de:	0c 90       	ld	r0, X
     6e0:	02 c0       	rjmp	.+4      	; 0x6e6 <_Z12digitalWritehh+0x2b4>
     6e2:	88 0f       	add	r24, r24
     6e4:	99 1f       	adc	r25, r25
     6e6:	0a 94       	dec	r0
     6e8:	e2 f7       	brpl	.-8      	; 0x6e2 <_Z12digitalWritehh+0x2b0>
     6ea:	84 2b       	or	r24, r20
     6ec:	80 83       	st	Z, r24
			           break;
     6ee:	08 95       	ret
				     case'l':
	                  PORTL|=(1<<bIt[pInno]);
     6f0:	eb e0       	ldi	r30, 0x0B	; 11
     6f2:	f1 e0       	ldi	r31, 0x01	; 1
     6f4:	40 81       	ld	r20, Z
     6f6:	dc 01       	movw	r26, r24
     6f8:	aa 0f       	add	r26, r26
     6fa:	bb 1f       	adc	r27, r27
     6fc:	a0 50       	subi	r26, 0x00	; 0
     6fe:	be 4f       	sbci	r27, 0xFE	; 254
     700:	21 e0       	ldi	r18, 0x01	; 1
     702:	30 e0       	ldi	r19, 0x00	; 0
     704:	c9 01       	movw	r24, r18
     706:	0c 90       	ld	r0, X
     708:	02 c0       	rjmp	.+4      	; 0x70e <_Z12digitalWritehh+0x2dc>
     70a:	88 0f       	add	r24, r24
     70c:	99 1f       	adc	r25, r25
     70e:	0a 94       	dec	r0
     710:	e2 f7       	brpl	.-8      	; 0x70a <_Z12digitalWritehh+0x2d8>
     712:	84 2b       	or	r24, r20
     714:	80 83       	st	Z, r24
     716:	08 95       	ret

00000718 <_Z11digitalReadh>:

uint8_t digitalRead(uint8_t pInno)
{
	uint8_t z;				//not a good practice
	uint8_t x;				//not a good practice
   switch(rEgister[pInno])
     718:	28 e7       	ldi	r18, 0x78	; 120
     71a:	32 e0       	ldi	r19, 0x02	; 2
     71c:	28 0f       	add	r18, r24
     71e:	31 1d       	adc	r19, r1
     720:	f9 01       	movw	r30, r18
     722:	80 81       	ld	r24, Z
     724:	85 36       	cpi	r24, 0x65	; 101
     726:	d9 f0       	breq	.+54     	; 0x75e <_Z11digitalReadh+0x46>
     728:	86 36       	cpi	r24, 0x66	; 102
     72a:	38 f4       	brcc	.+14     	; 0x73a <_Z11digitalReadh+0x22>
     72c:	83 36       	cpi	r24, 0x63	; 99
     72e:	99 f0       	breq	.+38     	; 0x756 <_Z11digitalReadh+0x3e>
     730:	84 36       	cpi	r24, 0x64	; 100
     732:	98 f4       	brcc	.+38     	; 0x75a <_Z11digitalReadh+0x42>
     734:	82 36       	cpi	r24, 0x62	; 98
     736:	f9 f4       	brne	.+62     	; 0x776 <_Z11digitalReadh+0x5e>
     738:	0c c0       	rjmp	.+24     	; 0x752 <_Z11digitalReadh+0x3a>
     73a:	88 36       	cpi	r24, 0x68	; 104
     73c:	a1 f0       	breq	.+40     	; 0x766 <_Z11digitalReadh+0x4e>
     73e:	89 36       	cpi	r24, 0x69	; 105
     740:	18 f4       	brcc	.+6      	; 0x748 <_Z11digitalReadh+0x30>
     742:	87 36       	cpi	r24, 0x67	; 103
     744:	c1 f4       	brne	.+48     	; 0x776 <_Z11digitalReadh+0x5e>
     746:	0d c0       	rjmp	.+26     	; 0x762 <_Z11digitalReadh+0x4a>
     748:	8a 36       	cpi	r24, 0x6A	; 106
     74a:	81 f0       	breq	.+32     	; 0x76c <_Z11digitalReadh+0x54>
     74c:	8c 36       	cpi	r24, 0x6C	; 108
     74e:	99 f4       	brne	.+38     	; 0x776 <_Z11digitalReadh+0x5e>
     750:	10 c0       	rjmp	.+32     	; 0x772 <_Z11digitalReadh+0x5a>
         {

	          case'b':
	                  z=PINB&(1<<bIt[pInno]);
     752:	83 b1       	in	r24, 0x03	; 3
			           break;
     754:	08 95       	ret
	          case'c':
	                  z=PINC&(1<<bIt[pInno]);
     756:	86 b1       	in	r24, 0x06	; 6
			          break;
     758:	08 95       	ret
	          case'd':
	                  z=PIND&(1<<bIt[pInno]);
     75a:	89 b1       	in	r24, 0x09	; 9
			          break;
     75c:	08 95       	ret

		      case'e':
	                   z=PINE&(1<<bIt[pInno]);
     75e:	8c b1       	in	r24, 0x0c	; 12
			           break;
     760:	08 95       	ret

			     case'g':
	                   z=PING&(1<<bIt[pInno]);
     762:	82 b3       	in	r24, 0x12	; 18
			           break;
     764:	08 95       	ret
			 case'h':
	                  z=PINH&(1<<bIt[pInno]);
     766:	80 91 00 01 	lds	r24, 0x0100
			           break;
     76a:	08 95       	ret

			     case'j':
	                   z=PINJ&(1<<bIt[pInno]);
     76c:	80 91 03 01 	lds	r24, 0x0103
			           break;
     770:	08 95       	ret
				     case'l':
	                   z=PINL&(1<<bIt[pInno]);
     772:	80 91 09 01 	lds	r24, 0x0109
			           break;
					   return z;
	     }
}
     776:	08 95       	ret

00000778 <_Z20microsecondsToInchesm>:
{
  // According to Parallax's datasheet for the PING))), there are 73.746
  // microseconds per inch (i.e. sound travels at 1130 feet per second).
  // This gives the distance travelled by the ping, outbound and return,
  // so we divide by 2 to get the distance of the obstacle.
  return (mIcroseconds*0.00669/ 2);
     778:	0e 94 38 19 	call	0x3270	; 0x3270 <__floatunsisf>
     77c:	2a ec       	ldi	r18, 0xCA	; 202
     77e:	37 e3       	ldi	r19, 0x37	; 55
     780:	4b ed       	ldi	r20, 0xDB	; 219
     782:	5b e3       	ldi	r21, 0x3B	; 59
     784:	0e 94 c6 19 	call	0x338c	; 0x338c <__mulsf3>
     788:	20 e0       	ldi	r18, 0x00	; 0
     78a:	30 e0       	ldi	r19, 0x00	; 0
     78c:	40 e0       	ldi	r20, 0x00	; 0
     78e:	5f e3       	ldi	r21, 0x3F	; 63
     790:	0e 94 c6 19 	call	0x338c	; 0x338c <__mulsf3>
     794:	0e 94 0c 19 	call	0x3218	; 0x3218 <__fixunssfsi>
}
     798:	08 95       	ret

0000079a <_Z25microsecondsToCentimetersm>:
long unsigned int microsecondsToCentimeters(long unsigned int microseconds)
{
  // The speed of sound is 340 m/s or 29 microseconds per centimeter.
  // The ping travels out and back, so to find the distance of the object we
  // take half of the distance travelled.
  return (microseconds*0.17/ 2);
     79a:	0e 94 38 19 	call	0x3270	; 0x3270 <__floatunsisf>
     79e:	2b e7       	ldi	r18, 0x7B	; 123
     7a0:	34 e1       	ldi	r19, 0x14	; 20
     7a2:	4e e2       	ldi	r20, 0x2E	; 46
     7a4:	5e e3       	ldi	r21, 0x3E	; 62
     7a6:	0e 94 c6 19 	call	0x338c	; 0x338c <__mulsf3>
     7aa:	20 e0       	ldi	r18, 0x00	; 0
     7ac:	30 e0       	ldi	r19, 0x00	; 0
     7ae:	40 e0       	ldi	r20, 0x00	; 0
     7b0:	5f e3       	ldi	r21, 0x3F	; 63
     7b2:	0e 94 c6 19 	call	0x338c	; 0x338c <__mulsf3>
     7b6:	0e 94 0c 19 	call	0x3218	; 0x3218 <__fixunssfsi>
}
     7ba:	08 95       	ret

000007bc <_Z7initADCv>:
Serial1 Serial1;
Serial2 Serial2;
Serial3 Serial3;
void initADC()
{
	ADMUX=(1<<REFS0);				//Aref=AVcc
     7bc:	80 e4       	ldi	r24, 0x40	; 64
     7be:	80 93 7c 00 	sts	0x007C, r24
	ADCSRA=(1<<ADEN)|(1<<ADPS2)|(1<<ADPS1);		//ADC enabled, Prescaler 64
     7c2:	86 e8       	ldi	r24, 0x86	; 134
     7c4:	80 93 7a 00 	sts	0x007A, r24
}
     7c8:	08 95       	ret

000007ca <_Z10analogReadi>:

int analogRead(int (pInno))
{
     7ca:	0f 93       	push	r16
     7cc:	1f 93       	push	r17
     7ce:	cf 93       	push	r28
     7d0:	df 93       	push	r29
     7d2:	8c 01       	movw	r16, r24
        //prescalar set to default
  	initADC();
     7d4:	0e 94 de 03 	call	0x7bc	; 0x7bc <_Z7initADCv>
  	ADMUX=(1<<REFS0)|(0<<REFS1);
     7d8:	cc e7       	ldi	r28, 0x7C	; 124
     7da:	d0 e0       	ldi	r29, 0x00	; 0
     7dc:	80 e4       	ldi	r24, 0x40	; 64
     7de:	88 83       	st	Y, r24
  	ADCSRA|=(1<<ADEN);
     7e0:	ea e7       	ldi	r30, 0x7A	; 122
     7e2:	f0 e0       	ldi	r31, 0x00	; 0
     7e4:	80 81       	ld	r24, Z
     7e6:	80 68       	ori	r24, 0x80	; 128
     7e8:	80 83       	st	Z, r24
    ADMUX|=(pInno%8);//chose value from 0 to 7 to chose adc pin accordingly
     7ea:	28 81       	ld	r18, Y
     7ec:	c8 01       	movw	r24, r16
     7ee:	68 e0       	ldi	r22, 0x08	; 8
     7f0:	70 e0       	ldi	r23, 0x00	; 0
     7f2:	0e 94 48 1a 	call	0x3490	; 0x3490 <__divmodhi4>
     7f6:	28 2b       	or	r18, r24
     7f8:	28 83       	st	Y, r18
    ADCSRA|=(1<<ADEN);
     7fa:	80 81       	ld	r24, Z
     7fc:	80 68       	ori	r24, 0x80	; 128
     7fe:	80 83       	st	Z, r24
    ADCSRA|=(1<<ADSC);
     800:	80 81       	ld	r24, Z
     802:	80 64       	ori	r24, 0x40	; 64
     804:	80 83       	st	Z, r24
	while(ADCSRA&(1<<ADSC));
     806:	80 81       	ld	r24, Z
     808:	86 fd       	sbrc	r24, 6
     80a:	fd cf       	rjmp	.-6      	; 0x806 <_Z10analogReadi+0x3c>
	return (ADC);
     80c:	20 91 78 00 	lds	r18, 0x0078
     810:	30 91 79 00 	lds	r19, 0x0079
}
     814:	82 2f       	mov	r24, r18
     816:	93 2f       	mov	r25, r19
     818:	df 91       	pop	r29
     81a:	cf 91       	pop	r28
     81c:	1f 91       	pop	r17
     81e:	0f 91       	pop	r16
     820:	08 95       	ret

00000822 <_Z11analogWritehh>:

void analogWrite(uint8_t pInno,uint8_t dUtycY)
{
  switch(pInno)
     822:	89 30       	cpi	r24, 0x09	; 9
     824:	09 f4       	brne	.+2      	; 0x828 <_Z11analogWritehh+0x6>
     826:	59 c0       	rjmp	.+178    	; 0x8da <_Z11analogWritehh+0xb8>
     828:	8a 30       	cpi	r24, 0x0A	; 10
     82a:	98 f4       	brcc	.+38     	; 0x852 <_Z11analogWritehh+0x30>
     82c:	85 30       	cpi	r24, 0x05	; 5
     82e:	09 f4       	brne	.+2      	; 0x832 <_Z11analogWritehh+0x10>
     830:	66 c0       	rjmp	.+204    	; 0x8fe <_Z11analogWritehh+0xdc>
     832:	86 30       	cpi	r24, 0x06	; 6
     834:	38 f4       	brcc	.+14     	; 0x844 <_Z11analogWritehh+0x22>
     836:	82 30       	cpi	r24, 0x02	; 2
     838:	09 f4       	brne	.+2      	; 0x83c <_Z11analogWritehh+0x1a>
     83a:	72 c0       	rjmp	.+228    	; 0x920 <_Z11analogWritehh+0xfe>
     83c:	84 30       	cpi	r24, 0x04	; 4
     83e:	09 f0       	breq	.+2      	; 0x842 <_Z11analogWritehh+0x20>
     840:	e5 c0       	rjmp	.+458    	; 0xa0c <_Z11analogWritehh+0x1ea>
     842:	b2 c0       	rjmp	.+356    	; 0x9a8 <_Z11analogWritehh+0x186>
     844:	86 30       	cpi	r24, 0x06	; 6
     846:	09 f4       	brne	.+2      	; 0x84a <_Z11analogWritehh+0x28>
     848:	b8 c0       	rjmp	.+368    	; 0x9ba <_Z11analogWritehh+0x198>
     84a:	87 30       	cpi	r24, 0x07	; 7
     84c:	09 f0       	breq	.+2      	; 0x850 <_Z11analogWritehh+0x2e>
     84e:	de c0       	rjmp	.+444    	; 0xa0c <_Z11analogWritehh+0x1ea>
     850:	c9 c0       	rjmp	.+402    	; 0x9e4 <_Z11analogWritehh+0x1c2>
     852:	8c 30       	cpi	r24, 0x0C	; 12
     854:	19 f1       	breq	.+70     	; 0x89c <_Z11analogWritehh+0x7a>
     856:	8d 30       	cpi	r24, 0x0D	; 13
     858:	30 f4       	brcc	.+12     	; 0x866 <_Z11analogWritehh+0x44>
     85a:	8a 30       	cpi	r24, 0x0A	; 10
     85c:	81 f1       	breq	.+96     	; 0x8be <_Z11analogWritehh+0x9c>
     85e:	8b 30       	cpi	r24, 0x0B	; 11
     860:	09 f0       	breq	.+2      	; 0x864 <_Z11analogWritehh+0x42>
     862:	d4 c0       	rjmp	.+424    	; 0xa0c <_Z11analogWritehh+0x1ea>
     864:	0a c0       	rjmp	.+20     	; 0x87a <_Z11analogWritehh+0x58>
     866:	8d 32       	cpi	r24, 0x2D	; 45
     868:	09 f4       	brne	.+2      	; 0x86c <_Z11analogWritehh+0x4a>
     86a:	80 c0       	rjmp	.+256    	; 0x96c <_Z11analogWritehh+0x14a>
     86c:	8e 32       	cpi	r24, 0x2E	; 46
     86e:	09 f4       	brne	.+2      	; 0x872 <_Z11analogWritehh+0x50>
     870:	68 c0       	rjmp	.+208    	; 0x942 <_Z11analogWritehh+0x120>
     872:	8d 30       	cpi	r24, 0x0D	; 13
     874:	09 f0       	breq	.+2      	; 0x878 <_Z11analogWritehh+0x56>
     876:	ca c0       	rjmp	.+404    	; 0xa0c <_Z11analogWritehh+0x1ea>
     878:	8e c0       	rjmp	.+284    	; 0x996 <_Z11analogWritehh+0x174>
  {
	  case 11:
		   DDRB|=(1<<PB5);
     87a:	25 9a       	sbi	0x04, 5	; 4
		   TCCR1A|=(1<<WGM10)|(1<<WGM12)|(1<<COM1A1);
     87c:	e0 e8       	ldi	r30, 0x80	; 128
     87e:	f0 e0       	ldi	r31, 0x00	; 0
     880:	80 81       	ld	r24, Z
     882:	89 68       	ori	r24, 0x89	; 137
     884:	80 83       	st	Z, r24
		   TCCR1B|=(1<<CS11)|(1<<CS10);
     886:	e1 e8       	ldi	r30, 0x81	; 129
     888:	f0 e0       	ldi	r31, 0x00	; 0
     88a:	80 81       	ld	r24, Z
     88c:	83 60       	ori	r24, 0x03	; 3
     88e:	80 83       	st	Z, r24
		   OCR1A=dUtycY;
     890:	70 e0       	ldi	r23, 0x00	; 0
     892:	70 93 89 00 	sts	0x0089, r23
     896:	60 93 88 00 	sts	0x0088, r22
		   break;
     89a:	08 95       	ret
	  case 12:
		  DDRB|=(1<<PB6);
     89c:	26 9a       	sbi	0x04, 6	; 4
		  TCCR1A|=(1<<WGM10)|(1<<WGM12)|(1<<COM1B1);
     89e:	e0 e8       	ldi	r30, 0x80	; 128
     8a0:	f0 e0       	ldi	r31, 0x00	; 0
     8a2:	80 81       	ld	r24, Z
     8a4:	89 62       	ori	r24, 0x29	; 41
     8a6:	80 83       	st	Z, r24
		  TCCR1B|=(1<<CS11)|(1<<CS10);
     8a8:	e1 e8       	ldi	r30, 0x81	; 129
     8aa:	f0 e0       	ldi	r31, 0x00	; 0
     8ac:	80 81       	ld	r24, Z
     8ae:	83 60       	ori	r24, 0x03	; 3
     8b0:	80 83       	st	Z, r24
		  OCR1B=dUtycY;
     8b2:	70 e0       	ldi	r23, 0x00	; 0
     8b4:	70 93 8b 00 	sts	0x008B, r23
     8b8:	60 93 8a 00 	sts	0x008A, r22
		  break;
     8bc:	08 95       	ret
	  case 10:
		  DDRB|=(1<<PB4);
     8be:	24 9a       	sbi	0x04, 4	; 4
		  TCCR2A|=(1<<COM2A1)|(1<<WGM21)|(1<<WGM20);
     8c0:	e0 eb       	ldi	r30, 0xB0	; 176
     8c2:	f0 e0       	ldi	r31, 0x00	; 0
     8c4:	80 81       	ld	r24, Z
     8c6:	83 68       	ori	r24, 0x83	; 131
     8c8:	80 83       	st	Z, r24
		  TCCR2B|=(1<<CS20);
     8ca:	e1 eb       	ldi	r30, 0xB1	; 177
     8cc:	f0 e0       	ldi	r31, 0x00	; 0
     8ce:	80 81       	ld	r24, Z
     8d0:	81 60       	ori	r24, 0x01	; 1
     8d2:	80 83       	st	Z, r24
		  OCR2A=dUtycY;
     8d4:	60 93 b3 00 	sts	0x00B3, r22
		  break;
     8d8:	08 95       	ret
	  case 9:
		   DDRH|=(1<<PH6);
     8da:	e1 e0       	ldi	r30, 0x01	; 1
     8dc:	f1 e0       	ldi	r31, 0x01	; 1
     8de:	80 81       	ld	r24, Z
     8e0:	80 64       	ori	r24, 0x40	; 64
     8e2:	80 83       	st	Z, r24
		   TCCR2A|=(1<<WGM21)|(1<<WGM20)|(1<<COM2B1);
     8e4:	e0 eb       	ldi	r30, 0xB0	; 176
     8e6:	f0 e0       	ldi	r31, 0x00	; 0
     8e8:	80 81       	ld	r24, Z
     8ea:	83 62       	ori	r24, 0x23	; 35
     8ec:	80 83       	st	Z, r24
		   TCCR2B|=(1<<CS20);
     8ee:	e1 eb       	ldi	r30, 0xB1	; 177
     8f0:	f0 e0       	ldi	r31, 0x00	; 0
     8f2:	80 81       	ld	r24, Z
     8f4:	81 60       	ori	r24, 0x01	; 1
     8f6:	80 83       	st	Z, r24
		   OCR2B=dUtycY;
     8f8:	60 93 b4 00 	sts	0x00B4, r22
		   break;
     8fc:	08 95       	ret
	  case 5:
		  DDRE|=(1<<PE3);
     8fe:	6b 9a       	sbi	0x0d, 3	; 13
		  TCCR3A|=(1<<WGM32)|(1<<WGM30)|(1<<COM3A1);
     900:	e0 e9       	ldi	r30, 0x90	; 144
     902:	f0 e0       	ldi	r31, 0x00	; 0
     904:	80 81       	ld	r24, Z
     906:	89 68       	ori	r24, 0x89	; 137
     908:	80 83       	st	Z, r24
		  TCCR3B|=(1<<CS30);
     90a:	e1 e9       	ldi	r30, 0x91	; 145
     90c:	f0 e0       	ldi	r31, 0x00	; 0
     90e:	80 81       	ld	r24, Z
     910:	81 60       	ori	r24, 0x01	; 1
     912:	80 83       	st	Z, r24
		  OCR3A=dUtycY;
     914:	70 e0       	ldi	r23, 0x00	; 0
     916:	70 93 99 00 	sts	0x0099, r23
     91a:	60 93 98 00 	sts	0x0098, r22
		  break;
     91e:	08 95       	ret
	  case 2:
	  	  DDRE|=(1<<PE4);	
     920:	6c 9a       	sbi	0x0d, 4	; 13
		  TCCR3A|=(1<<WGM32)|(1<<WGM30)|(1<<COM3B1);
     922:	e0 e9       	ldi	r30, 0x90	; 144
     924:	f0 e0       	ldi	r31, 0x00	; 0
     926:	80 81       	ld	r24, Z
     928:	89 62       	ori	r24, 0x29	; 41
     92a:	80 83       	st	Z, r24
		  TCCR3B|=(1<<CS30);
     92c:	e1 e9       	ldi	r30, 0x91	; 145
     92e:	f0 e0       	ldi	r31, 0x00	; 0
     930:	80 81       	ld	r24, Z
     932:	81 60       	ori	r24, 0x01	; 1
     934:	80 83       	st	Z, r24
		  OCR3B=dUtycY;
     936:	70 e0       	ldi	r23, 0x00	; 0
     938:	70 93 9b 00 	sts	0x009B, r23
     93c:	60 93 9a 00 	sts	0x009A, r22
		  break;
     940:	08 95       	ret
	  case 46:
		  DDRL|=(1<<PL3);
     942:	ea e0       	ldi	r30, 0x0A	; 10
     944:	f1 e0       	ldi	r31, 0x01	; 1
     946:	80 81       	ld	r24, Z
     948:	88 60       	ori	r24, 0x08	; 8
     94a:	80 83       	st	Z, r24
		  TCCR5A|=(1<<WGM52)|(1<<WGM50)|(1<<COM5A1);
     94c:	e0 e2       	ldi	r30, 0x20	; 32
     94e:	f1 e0       	ldi	r31, 0x01	; 1
     950:	80 81       	ld	r24, Z
     952:	89 68       	ori	r24, 0x89	; 137
     954:	80 83       	st	Z, r24
		  TCCR5B|=(1<<CS50);
     956:	e1 e2       	ldi	r30, 0x21	; 33
     958:	f1 e0       	ldi	r31, 0x01	; 1
     95a:	80 81       	ld	r24, Z
     95c:	81 60       	ori	r24, 0x01	; 1
     95e:	80 83       	st	Z, r24
		  OCR5A=dUtycY;
     960:	70 e0       	ldi	r23, 0x00	; 0
     962:	70 93 29 01 	sts	0x0129, r23
     966:	60 93 28 01 	sts	0x0128, r22
		  break;
     96a:	08 95       	ret
	  case 45:
		  DDRL|=(1<<PL4);
     96c:	ea e0       	ldi	r30, 0x0A	; 10
     96e:	f1 e0       	ldi	r31, 0x01	; 1
     970:	80 81       	ld	r24, Z
     972:	80 61       	ori	r24, 0x10	; 16
     974:	80 83       	st	Z, r24
		  TCCR5A|=(1<<WGM52)|(1<<WGM50)|(1<<COM5B1);
     976:	e0 e2       	ldi	r30, 0x20	; 32
     978:	f1 e0       	ldi	r31, 0x01	; 1
     97a:	80 81       	ld	r24, Z
     97c:	89 62       	ori	r24, 0x29	; 41
     97e:	80 83       	st	Z, r24
		  TCCR5B|=(1<<CS50);
     980:	e1 e2       	ldi	r30, 0x21	; 33
     982:	f1 e0       	ldi	r31, 0x01	; 1
     984:	80 81       	ld	r24, Z
     986:	81 60       	ori	r24, 0x01	; 1
     988:	80 83       	st	Z, r24
		  OCR5B=dUtycY;
     98a:	70 e0       	ldi	r23, 0x00	; 0
     98c:	70 93 2b 01 	sts	0x012B, r23
     990:	60 93 2a 01 	sts	0x012A, r22
		  break;
     994:	08 95       	ret
	  case 13:
		  DDRB|=(1<<PB7);
     996:	27 9a       	sbi	0x04, 7	; 4
		  TCCR0A|=(1<<WGM10)|(1<<WGM00)|(1<<COM0A1);
     998:	84 b5       	in	r24, 0x24	; 36
     99a:	81 68       	ori	r24, 0x81	; 129
     99c:	84 bd       	out	0x24, r24	; 36
		  TCCR0B|=(1<<CS00);
     99e:	85 b5       	in	r24, 0x25	; 37
     9a0:	81 60       	ori	r24, 0x01	; 1
     9a2:	85 bd       	out	0x25, r24	; 37
		  OCR0A=dUtycY;
     9a4:	67 bd       	out	0x27, r22	; 39
		  break;
     9a6:	08 95       	ret
	  case 4:
	  	DDRG|=(1<<PG5);
     9a8:	9d 9a       	sbi	0x13, 5	; 19
		TCCR0A|=(1<<WGM10)|(1<<WGM00)|(1<<COM0B1);
     9aa:	84 b5       	in	r24, 0x24	; 36
     9ac:	81 62       	ori	r24, 0x21	; 33
     9ae:	84 bd       	out	0x24, r24	; 36
		TCCR0B|=(1<<CS00);
     9b0:	85 b5       	in	r24, 0x25	; 37
     9b2:	81 60       	ori	r24, 0x01	; 1
     9b4:	85 bd       	out	0x25, r24	; 37
		OCR0B=dUtycY;
     9b6:	68 bd       	out	0x28, r22	; 40
		break;
     9b8:	08 95       	ret

	  case 6:
		  DDRH|=(1<<PH3);
     9ba:	e1 e0       	ldi	r30, 0x01	; 1
     9bc:	f1 e0       	ldi	r31, 0x01	; 1
     9be:	80 81       	ld	r24, Z
     9c0:	88 60       	ori	r24, 0x08	; 8
     9c2:	80 83       	st	Z, r24
		  TCCR4A|=(1<<WGM42)|(1<<WGM40)|(1<<COM4A1);
     9c4:	e0 ea       	ldi	r30, 0xA0	; 160
     9c6:	f0 e0       	ldi	r31, 0x00	; 0
     9c8:	80 81       	ld	r24, Z
     9ca:	89 68       	ori	r24, 0x89	; 137
     9cc:	80 83       	st	Z, r24
		  TCCR4B|=(1<<CS40);
     9ce:	e1 ea       	ldi	r30, 0xA1	; 161
     9d0:	f0 e0       	ldi	r31, 0x00	; 0
     9d2:	80 81       	ld	r24, Z
     9d4:	81 60       	ori	r24, 0x01	; 1
     9d6:	80 83       	st	Z, r24
		  OCR4A=dUtycY;
     9d8:	70 e0       	ldi	r23, 0x00	; 0
     9da:	70 93 a9 00 	sts	0x00A9, r23
     9de:	60 93 a8 00 	sts	0x00A8, r22
		  break;
     9e2:	08 95       	ret
	  case 7:
		  
		  DDRH|=(1<<PH4);
     9e4:	e1 e0       	ldi	r30, 0x01	; 1
     9e6:	f1 e0       	ldi	r31, 0x01	; 1
     9e8:	80 81       	ld	r24, Z
     9ea:	80 61       	ori	r24, 0x10	; 16
     9ec:	80 83       	st	Z, r24
		TCCR4A|=(1<<WGM42)|(1<<WGM40)|(1<<COM4B1);
     9ee:	e0 ea       	ldi	r30, 0xA0	; 160
     9f0:	f0 e0       	ldi	r31, 0x00	; 0
     9f2:	80 81       	ld	r24, Z
     9f4:	89 62       	ori	r24, 0x29	; 41
     9f6:	80 83       	st	Z, r24
		  TCCR4B|=(1<<CS40);
     9f8:	e1 ea       	ldi	r30, 0xA1	; 161
     9fa:	f0 e0       	ldi	r31, 0x00	; 0
     9fc:	80 81       	ld	r24, Z
     9fe:	81 60       	ori	r24, 0x01	; 1
     a00:	80 83       	st	Z, r24
		  OCR4B=dUtycY;
     a02:	70 e0       	ldi	r23, 0x00	; 0
     a04:	70 93 ab 00 	sts	0x00AB, r23
     a08:	60 93 aa 00 	sts	0x00AA, r22
     a0c:	08 95       	ret

00000a0e <_Z6millisv>:
    return 1;
}

static __inline__ uint8_t __iCliRetVal(void)
{
    cli();
     a0e:	f8 94       	cli
{
    unsigned long millis_return;

    // Ensure this cannot be disrupted
    ATOMIC_BLOCK(ATOMIC_FORCEON) {
        millis_return = tImer2_millis;
     a10:	20 91 be 02 	lds	r18, 0x02BE
     a14:	30 91 bf 02 	lds	r19, 0x02BF
     a18:	40 91 c0 02 	lds	r20, 0x02C0
     a1c:	50 91 c1 02 	lds	r21, 0x02C1
    return 1;
}

static __inline__ void __iSeiParam(const uint8_t *__s)
{
    sei();
     a20:	78 94       	sei
    }

    return millis_return;
}
     a22:	62 2f       	mov	r22, r18
     a24:	73 2f       	mov	r23, r19
     a26:	84 2f       	mov	r24, r20
     a28:	95 2f       	mov	r25, r21
     a2a:	08 95       	ret

00000a2c <__vector_13>:

ISR (TIMER2_COMPA_vect)
{
     a2c:	1f 92       	push	r1
     a2e:	0f 92       	push	r0
     a30:	0f b6       	in	r0, 0x3f	; 63
     a32:	0f 92       	push	r0
     a34:	11 24       	eor	r1, r1
     a36:	8f 93       	push	r24
     a38:	9f 93       	push	r25
     a3a:	af 93       	push	r26
     a3c:	bf 93       	push	r27
    tImer2_millis++;
     a3e:	80 91 be 02 	lds	r24, 0x02BE
     a42:	90 91 bf 02 	lds	r25, 0x02BF
     a46:	a0 91 c0 02 	lds	r26, 0x02C0
     a4a:	b0 91 c1 02 	lds	r27, 0x02C1
     a4e:	01 96       	adiw	r24, 0x01	; 1
     a50:	a1 1d       	adc	r26, r1
     a52:	b1 1d       	adc	r27, r1
     a54:	80 93 be 02 	sts	0x02BE, r24
     a58:	90 93 bf 02 	sts	0x02BF, r25
     a5c:	a0 93 c0 02 	sts	0x02C0, r26
     a60:	b0 93 c1 02 	sts	0x02C1, r27
}
     a64:	bf 91       	pop	r27
     a66:	af 91       	pop	r26
     a68:	9f 91       	pop	r25
     a6a:	8f 91       	pop	r24
     a6c:	0f 90       	pop	r0
     a6e:	0f be       	out	0x3f, r0	; 63
     a70:	0f 90       	pop	r0
     a72:	1f 90       	pop	r1
     a74:	18 95       	reti

00000a76 <_Z5tinitv>:

void tinit()
{
	TCCR2B |= (1 << WGM22) | (1 << CS21);
     a76:	e1 eb       	ldi	r30, 0xB1	; 177
     a78:	f0 e0       	ldi	r31, 0x00	; 0
     a7a:	80 81       	ld	r24, Z
     a7c:	8a 60       	ori	r24, 0x0A	; 10
     a7e:	80 83       	st	Z, r24

    // Load the high byte, then the low byte
    // into the output compare
    OCR2A = CTC_MATCH_OVERFLOW;
     a80:	8d e7       	ldi	r24, 0x7D	; 125
     a82:	80 93 b3 00 	sts	0x00B3, r24

    // Enable the compare match interrupt
    TIMSK2 |= (1 << OCIE2A);
     a86:	e0 e7       	ldi	r30, 0x70	; 112
     a88:	f0 e0       	ldi	r31, 0x00	; 0
     a8a:	80 81       	ld	r24, Z
     a8c:	82 60       	ori	r24, 0x02	; 2
     a8e:	80 83       	st	Z, r24

    // Now enable global interrupts
    sei();
     a90:	78 94       	sei
}
     a92:	08 95       	ret

00000a94 <_Z5delaym>:


void delay(unsigned long mIllisec)
{
     a94:	9b 01       	movw	r18, r22
     a96:	ac 01       	movw	r20, r24
	int i;
	for(i=0;i<mIllisec;i++)
     a98:	61 15       	cp	r22, r1
     a9a:	71 05       	cpc	r23, r1
     a9c:	81 05       	cpc	r24, r1
     a9e:	91 05       	cpc	r25, r1
     aa0:	a1 f0       	breq	.+40     	; 0xaca <_Z5delaym+0x36>
     aa2:	60 e0       	ldi	r22, 0x00	; 0
     aa4:	70 e0       	ldi	r23, 0x00	; 0
	#else
		//round up by default
		__ticks_dc = (uint32_t)(ceil(fabs(__tmp)));
	#endif

	__builtin_avr_delay_cycles(__ticks_dc);
     aa6:	89 ef       	ldi	r24, 0xF9	; 249
     aa8:	90 e0       	ldi	r25, 0x00	; 0
     aaa:	01 97       	sbiw	r24, 0x01	; 1
     aac:	f1 f7       	brne	.-4      	; 0xaaa <_Z5delaym+0x16>
     aae:	00 c0       	rjmp	.+0      	; 0xab0 <_Z5delaym+0x1c>
     ab0:	00 00       	nop
     ab2:	6f 5f       	subi	r22, 0xFF	; 255
     ab4:	7f 4f       	sbci	r23, 0xFF	; 255
     ab6:	cb 01       	movw	r24, r22
     ab8:	aa 27       	eor	r26, r26
     aba:	97 fd       	sbrc	r25, 7
     abc:	a0 95       	com	r26
     abe:	ba 2f       	mov	r27, r26
     ac0:	82 17       	cp	r24, r18
     ac2:	93 07       	cpc	r25, r19
     ac4:	a4 07       	cpc	r26, r20
     ac6:	b5 07       	cpc	r27, r21
     ac8:	70 f3       	brcs	.-36     	; 0xaa6 <_Z5delaym+0x12>
     aca:	08 95       	ret

00000acc <_Z17delayMicrosecondsm>:
	}
	return;
}

void delayMicroseconds(unsigned long mIcrosec)
{
     acc:	9b 01       	movw	r18, r22
     ace:	ac 01       	movw	r20, r24
	int i;
	for(i=0;i<mIcrosec;i++)
     ad0:	61 15       	cp	r22, r1
     ad2:	71 05       	cpc	r23, r1
     ad4:	81 05       	cpc	r24, r1
     ad6:	91 05       	cpc	r25, r1
     ad8:	79 f0       	breq	.+30     	; 0xaf8 <_Z17delayMicrosecondsm+0x2c>
     ada:	60 e0       	ldi	r22, 0x00	; 0
     adc:	70 e0       	ldi	r23, 0x00	; 0
	#else
		//round up by default
		__ticks_dc = (uint32_t)(ceil(fabs(__tmp)));
	#endif

	__builtin_avr_delay_cycles(__ticks_dc);
     ade:	00 00       	nop
     ae0:	6f 5f       	subi	r22, 0xFF	; 255
     ae2:	7f 4f       	sbci	r23, 0xFF	; 255
     ae4:	cb 01       	movw	r24, r22
     ae6:	aa 27       	eor	r26, r26
     ae8:	97 fd       	sbrc	r25, 7
     aea:	a0 95       	com	r26
     aec:	ba 2f       	mov	r27, r26
     aee:	82 17       	cp	r24, r18
     af0:	93 07       	cpc	r25, r19
     af2:	a4 07       	cpc	r26, r20
     af4:	b5 07       	cpc	r27, r21
     af6:	98 f3       	brcs	.-26     	; 0xade <_Z17delayMicrosecondsm+0x12>
     af8:	08 95       	ret

00000afa <_Z3maplllll>:
	}
	return;
}

long map(long x, long in_min, long in_max, long out_min, long out_max)
{
     afa:	2f 92       	push	r2
     afc:	3f 92       	push	r3
     afe:	4f 92       	push	r4
     b00:	5f 92       	push	r5
     b02:	6f 92       	push	r6
     b04:	7f 92       	push	r7
     b06:	8f 92       	push	r8
     b08:	9f 92       	push	r9
     b0a:	af 92       	push	r10
     b0c:	bf 92       	push	r11
     b0e:	cf 92       	push	r12
     b10:	df 92       	push	r13
     b12:	ef 92       	push	r14
     b14:	ff 92       	push	r15
     b16:	0f 93       	push	r16
     b18:	1f 93       	push	r17
     b1a:	df 93       	push	r29
     b1c:	cf 93       	push	r28
     b1e:	cd b7       	in	r28, 0x3d	; 61
     b20:	de b7       	in	r29, 0x3e	; 62
     b22:	dc 01       	movw	r26, r24
     b24:	cb 01       	movw	r24, r22
     b26:	39 01       	movw	r6, r18
     b28:	4a 01       	movw	r8, r20
     b2a:	17 01       	movw	r2, r14
     b2c:	28 01       	movw	r4, r16
  return (x - in_min) * (out_max - out_min) / (in_max - in_min) + out_min;
     b2e:	ee 88       	ldd	r14, Y+22	; 0x16
     b30:	ff 88       	ldd	r15, Y+23	; 0x17
     b32:	08 8d       	ldd	r16, Y+24	; 0x18
     b34:	19 8d       	ldd	r17, Y+25	; 0x19
     b36:	ea 18       	sub	r14, r10
     b38:	fb 08       	sbc	r15, r11
     b3a:	0c 09       	sbc	r16, r12
     b3c:	1d 09       	sbc	r17, r13
     b3e:	9c 01       	movw	r18, r24
     b40:	ad 01       	movw	r20, r26
     b42:	26 19       	sub	r18, r6
     b44:	37 09       	sbc	r19, r7
     b46:	48 09       	sbc	r20, r8
     b48:	59 09       	sbc	r21, r9
     b4a:	c8 01       	movw	r24, r16
     b4c:	b7 01       	movw	r22, r14
     b4e:	0e 94 29 1a 	call	0x3452	; 0x3452 <__mulsi3>
     b52:	a2 01       	movw	r20, r4
     b54:	91 01       	movw	r18, r2
     b56:	26 19       	sub	r18, r6
     b58:	37 09       	sbc	r19, r7
     b5a:	48 09       	sbc	r20, r8
     b5c:	59 09       	sbc	r21, r9
     b5e:	0e 94 5b 1a 	call	0x34b6	; 0x34b6 <__divmodsi4>
     b62:	2a 0d       	add	r18, r10
     b64:	3b 1d       	adc	r19, r11
     b66:	4c 1d       	adc	r20, r12
     b68:	5d 1d       	adc	r21, r13
}
     b6a:	62 2f       	mov	r22, r18
     b6c:	73 2f       	mov	r23, r19
     b6e:	84 2f       	mov	r24, r20
     b70:	95 2f       	mov	r25, r21
     b72:	cf 91       	pop	r28
     b74:	df 91       	pop	r29
     b76:	1f 91       	pop	r17
     b78:	0f 91       	pop	r16
     b7a:	ff 90       	pop	r15
     b7c:	ef 90       	pop	r14
     b7e:	df 90       	pop	r13
     b80:	cf 90       	pop	r12
     b82:	bf 90       	pop	r11
     b84:	af 90       	pop	r10
     b86:	9f 90       	pop	r9
     b88:	8f 90       	pop	r8
     b8a:	7f 90       	pop	r7
     b8c:	6f 90       	pop	r6
     b8e:	5f 90       	pop	r5
     b90:	4f 90       	pop	r4
     b92:	3f 90       	pop	r3
     b94:	2f 90       	pop	r2
     b96:	08 95       	ret

00000b98 <_Z9constrainlll>:

long constrain(long nUm, long lOwer, long uPper)
{
     b98:	ef 92       	push	r14
     b9a:	ff 92       	push	r15
     b9c:	0f 93       	push	r16
     b9e:	1f 93       	push	r17
     ba0:	dc 01       	movw	r26, r24
     ba2:	cb 01       	movw	r24, r22
	if(nUm>uPper){
     ba4:	e8 16       	cp	r14, r24
     ba6:	f9 06       	cpc	r15, r25
     ba8:	0a 07       	cpc	r16, r26
     baa:	1b 07       	cpc	r17, r27
     bac:	5c f0       	brlt	.+22     	; 0xbc4 <_Z9constrainlll+0x2c>
     bae:	e2 2e       	mov	r14, r18
     bb0:	f3 2e       	mov	r15, r19
     bb2:	04 2f       	mov	r16, r20
     bb4:	15 2f       	mov	r17, r21
     bb6:	e8 16       	cp	r14, r24
     bb8:	f9 06       	cpc	r15, r25
     bba:	0a 07       	cpc	r16, r26
     bbc:	1b 07       	cpc	r17, r27
     bbe:	14 f4       	brge	.+4      	; 0xbc4 <_Z9constrainlll+0x2c>
     bc0:	7c 01       	movw	r14, r24
     bc2:	8d 01       	movw	r16, r26
    else if(nUm<lOwer){
      return lOwer;
  	}
    else 
    return nUm;
}
     bc4:	6e 2d       	mov	r22, r14
     bc6:	7f 2d       	mov	r23, r15
     bc8:	80 2f       	mov	r24, r16
     bca:	91 2f       	mov	r25, r17
     bcc:	1f 91       	pop	r17
     bce:	0f 91       	pop	r16
     bd0:	ff 90       	pop	r15
     bd2:	ef 90       	pop	r14
     bd4:	08 95       	ret

00000bd6 <_Z15attachIntteruptiPFvvEi>:
void attachIntterupt(int pIn, void (*iSrfunc)(void), int cOmpare)		//cOmpare:LOW=0,HIGH1,RISING=2,FALLING=3
{
	sei();
     bd6:	78 94       	sei
	cAllisr=iSrfunc;
     bd8:	70 93 c3 02 	sts	0x02C3, r23
     bdc:	60 93 c2 02 	sts	0x02C2, r22
	switch(pIn)	  //enabling interrupt pin
     be0:	83 30       	cpi	r24, 0x03	; 3
     be2:	91 05       	cpc	r25, r1
     be4:	09 f4       	brne	.+2      	; 0xbe8 <_Z15attachIntteruptiPFvvEi+0x12>
     be6:	7d c0       	rjmp	.+250    	; 0xce2 <_Z15attachIntteruptiPFvvEi+0x10c>
     be8:	84 30       	cpi	r24, 0x04	; 4
     bea:	91 05       	cpc	r25, r1
     bec:	54 f4       	brge	.+20     	; 0xc02 <_Z15attachIntteruptiPFvvEi+0x2c>
     bee:	81 30       	cpi	r24, 0x01	; 1
     bf0:	91 05       	cpc	r25, r1
     bf2:	c9 f1       	breq	.+114    	; 0xc66 <_Z15attachIntteruptiPFvvEi+0x90>
     bf4:	82 30       	cpi	r24, 0x02	; 2
     bf6:	91 05       	cpc	r25, r1
     bf8:	0c f0       	brlt	.+2      	; 0xbfc <_Z15attachIntteruptiPFvvEi+0x26>
     bfa:	54 c0       	rjmp	.+168    	; 0xca4 <_Z15attachIntteruptiPFvvEi+0xce>
     bfc:	00 97       	sbiw	r24, 0x00	; 0
     bfe:	91 f0       	breq	.+36     	; 0xc24 <_Z15attachIntteruptiPFvvEi+0x4e>
     c00:	0b c1       	rjmp	.+534    	; 0xe18 <_Z15attachIntteruptiPFvvEi+0x242>
     c02:	85 30       	cpi	r24, 0x05	; 5
     c04:	91 05       	cpc	r25, r1
     c06:	09 f4       	brne	.+2      	; 0xc0a <_Z15attachIntteruptiPFvvEi+0x34>
     c08:	aa c0       	rjmp	.+340    	; 0xd5e <_Z15attachIntteruptiPFvvEi+0x188>
     c0a:	85 30       	cpi	r24, 0x05	; 5
     c0c:	91 05       	cpc	r25, r1
     c0e:	0c f4       	brge	.+2      	; 0xc12 <_Z15attachIntteruptiPFvvEi+0x3c>
     c10:	87 c0       	rjmp	.+270    	; 0xd20 <_Z15attachIntteruptiPFvvEi+0x14a>
     c12:	86 30       	cpi	r24, 0x06	; 6
     c14:	91 05       	cpc	r25, r1
     c16:	09 f4       	brne	.+2      	; 0xc1a <_Z15attachIntteruptiPFvvEi+0x44>
     c18:	c1 c0       	rjmp	.+386    	; 0xd9c <_Z15attachIntteruptiPFvvEi+0x1c6>
     c1a:	87 30       	cpi	r24, 0x07	; 7
     c1c:	91 05       	cpc	r25, r1
     c1e:	09 f0       	breq	.+2      	; 0xc22 <_Z15attachIntteruptiPFvvEi+0x4c>
     c20:	fb c0       	rjmp	.+502    	; 0xe18 <_Z15attachIntteruptiPFvvEi+0x242>
     c22:	db c0       	rjmp	.+438    	; 0xdda <_Z15attachIntteruptiPFvvEi+0x204>
	{
		case 0:
		EIMSK|=1<<INT0;
     c24:	e8 9a       	sbi	0x1d, 0	; 29
		switch(cOmpare){
     c26:	43 30       	cpi	r20, 0x03	; 3
     c28:	51 05       	cpc	r21, r1
     c2a:	61 f0       	breq	.+24     	; 0xc44 <_Z15attachIntteruptiPFvvEi+0x6e>
     c2c:	44 30       	cpi	r20, 0x04	; 4
     c2e:	51 05       	cpc	r21, r1
     c30:	79 f0       	breq	.+30     	; 0xc50 <_Z15attachIntteruptiPFvvEi+0x7a>
     c32:	42 30       	cpi	r20, 0x02	; 2
     c34:	51 05       	cpc	r21, r1
     c36:	91 f4       	brne	.+36     	; 0xc5c <_Z15attachIntteruptiPFvvEi+0x86>
			case 2:
			EICRA|=(1<<ISC00)|(1<<ISC01);
     c38:	e9 e6       	ldi	r30, 0x69	; 105
     c3a:	f0 e0       	ldi	r31, 0x00	; 0
     c3c:	80 81       	ld	r24, Z
     c3e:	83 60       	ori	r24, 0x03	; 3
     c40:	80 83       	st	Z, r24
			break;
     c42:	08 95       	ret
			case 3:
			EICRA|=(0<<ISC00)|(1<<ISC01);
     c44:	e9 e6       	ldi	r30, 0x69	; 105
     c46:	f0 e0       	ldi	r31, 0x00	; 0
     c48:	80 81       	ld	r24, Z
     c4a:	82 60       	ori	r24, 0x02	; 2
     c4c:	80 83       	st	Z, r24
			break;
     c4e:	08 95       	ret
			case 4:
			EICRA|=(1<<ISC00)|(0<<ISC01);
     c50:	e9 e6       	ldi	r30, 0x69	; 105
     c52:	f0 e0       	ldi	r31, 0x00	; 0
     c54:	80 81       	ld	r24, Z
     c56:	81 60       	ori	r24, 0x01	; 1
     c58:	80 83       	st	Z, r24
			break;
     c5a:	08 95       	ret
			default:
			EICRA|=(0<<ISC00)|(0<<ISC01);
     c5c:	e9 e6       	ldi	r30, 0x69	; 105
     c5e:	f0 e0       	ldi	r31, 0x00	; 0
     c60:	80 81       	ld	r24, Z
     c62:	80 83       	st	Z, r24
     c64:	08 95       	ret
		}
		break;

		case 1:
		EIMSK|=1<<INT1;
     c66:	e9 9a       	sbi	0x1d, 1	; 29
                switch(cOmpare)
     c68:	43 30       	cpi	r20, 0x03	; 3
     c6a:	51 05       	cpc	r21, r1
     c6c:	61 f0       	breq	.+24     	; 0xc86 <_Z15attachIntteruptiPFvvEi+0xb0>
     c6e:	44 30       	cpi	r20, 0x04	; 4
     c70:	51 05       	cpc	r21, r1
     c72:	69 f0       	breq	.+26     	; 0xc8e <_Z15attachIntteruptiPFvvEi+0xb8>
     c74:	42 30       	cpi	r20, 0x02	; 2
     c76:	51 05       	cpc	r21, r1
     c78:	81 f4       	brne	.+32     	; 0xc9a <_Z15attachIntteruptiPFvvEi+0xc4>
		{
			case 2:
			EICRA|=(1<<ISC10)|(1<<ISC11);
     c7a:	e9 e6       	ldi	r30, 0x69	; 105
     c7c:	f0 e0       	ldi	r31, 0x00	; 0
     c7e:	80 81       	ld	r24, Z
     c80:	8c 60       	ori	r24, 0x0C	; 12
     c82:	80 83       	st	Z, r24
			break;
     c84:	08 95       	ret
			case 3:
			EICRA=(0<<ISC10)|(1<<ISC11);
     c86:	88 e0       	ldi	r24, 0x08	; 8
     c88:	80 93 69 00 	sts	0x0069, r24
			break;
     c8c:	08 95       	ret
			case 4:
			EICRA|=(1<<ISC10)|(0<<ISC11);
     c8e:	e9 e6       	ldi	r30, 0x69	; 105
     c90:	f0 e0       	ldi	r31, 0x00	; 0
     c92:	80 81       	ld	r24, Z
     c94:	84 60       	ori	r24, 0x04	; 4
     c96:	80 83       	st	Z, r24
			break;
     c98:	08 95       	ret
			default:
			EICRA|=(0<<ISC10)|(0<<ISC11);
     c9a:	e9 e6       	ldi	r30, 0x69	; 105
     c9c:	f0 e0       	ldi	r31, 0x00	; 0
     c9e:	80 81       	ld	r24, Z
     ca0:	80 83       	st	Z, r24
     ca2:	08 95       	ret
		}
		break;

		case 2:
		EIMSK|=1<<INT2;
     ca4:	ea 9a       	sbi	0x1d, 2	; 29
		switch(cOmpare)
     ca6:	43 30       	cpi	r20, 0x03	; 3
     ca8:	51 05       	cpc	r21, r1
     caa:	61 f0       	breq	.+24     	; 0xcc4 <_Z15attachIntteruptiPFvvEi+0xee>
     cac:	44 30       	cpi	r20, 0x04	; 4
     cae:	51 05       	cpc	r21, r1
     cb0:	69 f0       	breq	.+26     	; 0xccc <_Z15attachIntteruptiPFvvEi+0xf6>
     cb2:	42 30       	cpi	r20, 0x02	; 2
     cb4:	51 05       	cpc	r21, r1
     cb6:	81 f4       	brne	.+32     	; 0xcd8 <_Z15attachIntteruptiPFvvEi+0x102>
		{
			case 2:
			EICRA|=(1<<ISC20)|(1<<ISC21);
     cb8:	e9 e6       	ldi	r30, 0x69	; 105
     cba:	f0 e0       	ldi	r31, 0x00	; 0
     cbc:	80 81       	ld	r24, Z
     cbe:	80 63       	ori	r24, 0x30	; 48
     cc0:	80 83       	st	Z, r24
			break;
     cc2:	08 95       	ret
			case 3:
			EICRA=(0<<ISC20)|(1<<ISC21);
     cc4:	80 e2       	ldi	r24, 0x20	; 32
     cc6:	80 93 69 00 	sts	0x0069, r24
			break;
     cca:	08 95       	ret
			case 4:
			EICRA|=(1<<ISC20)|(0<<ISC21);
     ccc:	e9 e6       	ldi	r30, 0x69	; 105
     cce:	f0 e0       	ldi	r31, 0x00	; 0
     cd0:	80 81       	ld	r24, Z
     cd2:	80 61       	ori	r24, 0x10	; 16
     cd4:	80 83       	st	Z, r24
			break;
     cd6:	08 95       	ret
			default:
			EICRA|=(0<<ISC20)|(0<<ISC21);
     cd8:	e9 e6       	ldi	r30, 0x69	; 105
     cda:	f0 e0       	ldi	r31, 0x00	; 0
     cdc:	80 81       	ld	r24, Z
     cde:	80 83       	st	Z, r24
     ce0:	08 95       	ret
		}
		break;

		case 3:
		EIMSK|=1<<INT3;
     ce2:	eb 9a       	sbi	0x1d, 3	; 29
		switch(cOmpare)
     ce4:	43 30       	cpi	r20, 0x03	; 3
     ce6:	51 05       	cpc	r21, r1
     ce8:	61 f0       	breq	.+24     	; 0xd02 <_Z15attachIntteruptiPFvvEi+0x12c>
     cea:	44 30       	cpi	r20, 0x04	; 4
     cec:	51 05       	cpc	r21, r1
     cee:	69 f0       	breq	.+26     	; 0xd0a <_Z15attachIntteruptiPFvvEi+0x134>
     cf0:	42 30       	cpi	r20, 0x02	; 2
     cf2:	51 05       	cpc	r21, r1
     cf4:	81 f4       	brne	.+32     	; 0xd16 <_Z15attachIntteruptiPFvvEi+0x140>
		{
			case 2:
			EICRA|=(1<<ISC30)|(1<<ISC31);
     cf6:	e9 e6       	ldi	r30, 0x69	; 105
     cf8:	f0 e0       	ldi	r31, 0x00	; 0
     cfa:	80 81       	ld	r24, Z
     cfc:	80 6c       	ori	r24, 0xC0	; 192
     cfe:	80 83       	st	Z, r24
			break;
     d00:	08 95       	ret
			case 3:
			EICRA=(0<<ISC30)|(1<<ISC31);
     d02:	80 e8       	ldi	r24, 0x80	; 128
     d04:	80 93 69 00 	sts	0x0069, r24
			break;
     d08:	08 95       	ret
			case 4:
			EICRA|=(1<<ISC30)|(0<<ISC31);
     d0a:	e9 e6       	ldi	r30, 0x69	; 105
     d0c:	f0 e0       	ldi	r31, 0x00	; 0
     d0e:	80 81       	ld	r24, Z
     d10:	80 64       	ori	r24, 0x40	; 64
     d12:	80 83       	st	Z, r24
			break;
     d14:	08 95       	ret
			default:
			EICRA|=(0<<ISC30)|(0<<ISC31);
     d16:	e9 e6       	ldi	r30, 0x69	; 105
     d18:	f0 e0       	ldi	r31, 0x00	; 0
     d1a:	80 81       	ld	r24, Z
     d1c:	80 83       	st	Z, r24
     d1e:	08 95       	ret
		}
		break;

		case 4:
		EIMSK|=1<<INT4;
     d20:	ec 9a       	sbi	0x1d, 4	; 29
                switch(cOmpare)
     d22:	43 30       	cpi	r20, 0x03	; 3
     d24:	51 05       	cpc	r21, r1
     d26:	61 f0       	breq	.+24     	; 0xd40 <_Z15attachIntteruptiPFvvEi+0x16a>
     d28:	44 30       	cpi	r20, 0x04	; 4
     d2a:	51 05       	cpc	r21, r1
     d2c:	69 f0       	breq	.+26     	; 0xd48 <_Z15attachIntteruptiPFvvEi+0x172>
     d2e:	42 30       	cpi	r20, 0x02	; 2
     d30:	51 05       	cpc	r21, r1
     d32:	81 f4       	brne	.+32     	; 0xd54 <_Z15attachIntteruptiPFvvEi+0x17e>
		{
			case 2:
			EICRB|=(1<<ISC40)|(1<<ISC41);
     d34:	ea e6       	ldi	r30, 0x6A	; 106
     d36:	f0 e0       	ldi	r31, 0x00	; 0
     d38:	80 81       	ld	r24, Z
     d3a:	83 60       	ori	r24, 0x03	; 3
     d3c:	80 83       	st	Z, r24
			break;
     d3e:	08 95       	ret
			case 3:
			EICRB=(0<<ISC40)|(1<<ISC41);
     d40:	82 e0       	ldi	r24, 0x02	; 2
     d42:	80 93 6a 00 	sts	0x006A, r24
			break;
     d46:	08 95       	ret
			case 4:
			EICRB|=(1<<ISC40)|(0<<ISC41);
     d48:	ea e6       	ldi	r30, 0x6A	; 106
     d4a:	f0 e0       	ldi	r31, 0x00	; 0
     d4c:	80 81       	ld	r24, Z
     d4e:	81 60       	ori	r24, 0x01	; 1
     d50:	80 83       	st	Z, r24
			break;
     d52:	08 95       	ret
			default:
			EICRB|=(0<<ISC40)|(0<<ISC41);
     d54:	ea e6       	ldi	r30, 0x6A	; 106
     d56:	f0 e0       	ldi	r31, 0x00	; 0
     d58:	80 81       	ld	r24, Z
     d5a:	80 83       	st	Z, r24
     d5c:	08 95       	ret
		}
		break;

		case 5:
		EIMSK|=1<<INT5;
     d5e:	ed 9a       	sbi	0x1d, 5	; 29
		switch(cOmpare)
     d60:	43 30       	cpi	r20, 0x03	; 3
     d62:	51 05       	cpc	r21, r1
     d64:	61 f0       	breq	.+24     	; 0xd7e <_Z15attachIntteruptiPFvvEi+0x1a8>
     d66:	44 30       	cpi	r20, 0x04	; 4
     d68:	51 05       	cpc	r21, r1
     d6a:	69 f0       	breq	.+26     	; 0xd86 <_Z15attachIntteruptiPFvvEi+0x1b0>
     d6c:	42 30       	cpi	r20, 0x02	; 2
     d6e:	51 05       	cpc	r21, r1
     d70:	81 f4       	brne	.+32     	; 0xd92 <_Z15attachIntteruptiPFvvEi+0x1bc>
		{
			case 2:
			EICRB|=(1<<ISC50)|(1<<ISC51);
     d72:	ea e6       	ldi	r30, 0x6A	; 106
     d74:	f0 e0       	ldi	r31, 0x00	; 0
     d76:	80 81       	ld	r24, Z
     d78:	8c 60       	ori	r24, 0x0C	; 12
     d7a:	80 83       	st	Z, r24
			break;
     d7c:	08 95       	ret
			case 3:
			EICRB=(0<<ISC50)|(1<<ISC51);
     d7e:	88 e0       	ldi	r24, 0x08	; 8
     d80:	80 93 6a 00 	sts	0x006A, r24
			break;
     d84:	08 95       	ret
			case 4:
			EICRB|=(1<<ISC50)|(0<<ISC51);
     d86:	ea e6       	ldi	r30, 0x6A	; 106
     d88:	f0 e0       	ldi	r31, 0x00	; 0
     d8a:	80 81       	ld	r24, Z
     d8c:	84 60       	ori	r24, 0x04	; 4
     d8e:	80 83       	st	Z, r24
			break;
     d90:	08 95       	ret
			default:
                 	EICRB|=(0<<ISC40)|(0<<ISC41);
     d92:	ea e6       	ldi	r30, 0x6A	; 106
     d94:	f0 e0       	ldi	r31, 0x00	; 0
     d96:	80 81       	ld	r24, Z
     d98:	80 83       	st	Z, r24
     d9a:	08 95       	ret

		}
		break;

		case 6:
		EIMSK|=1<<INT6;
     d9c:	ee 9a       	sbi	0x1d, 6	; 29
	        switch(cOmpare)
     d9e:	43 30       	cpi	r20, 0x03	; 3
     da0:	51 05       	cpc	r21, r1
     da2:	61 f0       	breq	.+24     	; 0xdbc <_Z15attachIntteruptiPFvvEi+0x1e6>
     da4:	44 30       	cpi	r20, 0x04	; 4
     da6:	51 05       	cpc	r21, r1
     da8:	69 f0       	breq	.+26     	; 0xdc4 <_Z15attachIntteruptiPFvvEi+0x1ee>
     daa:	42 30       	cpi	r20, 0x02	; 2
     dac:	51 05       	cpc	r21, r1
     dae:	81 f4       	brne	.+32     	; 0xdd0 <_Z15attachIntteruptiPFvvEi+0x1fa>
		{
			case 2:
			EICRB|=(1<<ISC60)|(1<<ISC61);
     db0:	ea e6       	ldi	r30, 0x6A	; 106
     db2:	f0 e0       	ldi	r31, 0x00	; 0
     db4:	80 81       	ld	r24, Z
     db6:	80 63       	ori	r24, 0x30	; 48
     db8:	80 83       	st	Z, r24
			break;
     dba:	08 95       	ret
			case 3:
			EICRB=(0<<ISC60)|(1<<ISC61);
     dbc:	80 e2       	ldi	r24, 0x20	; 32
     dbe:	80 93 6a 00 	sts	0x006A, r24
			break;
     dc2:	08 95       	ret
			case 4:
			EICRB|=(1<<ISC60)|(0<<ISC61);
     dc4:	ea e6       	ldi	r30, 0x6A	; 106
     dc6:	f0 e0       	ldi	r31, 0x00	; 0
     dc8:	80 81       	ld	r24, Z
     dca:	80 61       	ori	r24, 0x10	; 16
     dcc:	80 83       	st	Z, r24
			break;
     dce:	08 95       	ret
			default:
			EICRB|=(0<<ISC60)|(0<<ISC61);
     dd0:	ea e6       	ldi	r30, 0x6A	; 106
     dd2:	f0 e0       	ldi	r31, 0x00	; 0
     dd4:	80 81       	ld	r24, Z
     dd6:	80 83       	st	Z, r24
     dd8:	08 95       	ret

		}
		break;

		case 7:
		EIMSK|=1<<INT7;
     dda:	ef 9a       	sbi	0x1d, 7	; 29
		switch(cOmpare)
     ddc:	43 30       	cpi	r20, 0x03	; 3
     dde:	51 05       	cpc	r21, r1
     de0:	61 f0       	breq	.+24     	; 0xdfa <_Z15attachIntteruptiPFvvEi+0x224>
     de2:	44 30       	cpi	r20, 0x04	; 4
     de4:	51 05       	cpc	r21, r1
     de6:	69 f0       	breq	.+26     	; 0xe02 <_Z15attachIntteruptiPFvvEi+0x22c>
     de8:	42 30       	cpi	r20, 0x02	; 2
     dea:	51 05       	cpc	r21, r1
     dec:	81 f4       	brne	.+32     	; 0xe0e <_Z15attachIntteruptiPFvvEi+0x238>
		{
			case 2:
			EICRB|=(1<<ISC70)|(1<<ISC71);
     dee:	ea e6       	ldi	r30, 0x6A	; 106
     df0:	f0 e0       	ldi	r31, 0x00	; 0
     df2:	80 81       	ld	r24, Z
     df4:	80 6c       	ori	r24, 0xC0	; 192
     df6:	80 83       	st	Z, r24
			break;
     df8:	08 95       	ret
			case 3:
			EICRB=(0<<ISC70)|(1<<ISC71);
     dfa:	80 e8       	ldi	r24, 0x80	; 128
     dfc:	80 93 6a 00 	sts	0x006A, r24
			break;
     e00:	08 95       	ret
			case 4:
			EICRB|=(1<<ISC70)|(0<<ISC71);
     e02:	ea e6       	ldi	r30, 0x6A	; 106
     e04:	f0 e0       	ldi	r31, 0x00	; 0
     e06:	80 81       	ld	r24, Z
     e08:	80 64       	ori	r24, 0x40	; 64
     e0a:	80 83       	st	Z, r24
			break;
     e0c:	08 95       	ret
			default:
			EICRB|=(0<<ISC70)|(0<<ISC71);
     e0e:	ea e6       	ldi	r30, 0x6A	; 106
     e10:	f0 e0       	ldi	r31, 0x00	; 0
     e12:	80 81       	ld	r24, Z
     e14:	80 83       	st	Z, r24
     e16:	08 95       	ret
		}
		break;

	        default:EICRA|=(0<<ISC01)|(0<<ISC00);
     e18:	e9 e6       	ldi	r30, 0x69	; 105
     e1a:	f0 e0       	ldi	r31, 0x00	; 0
     e1c:	80 81       	ld	r24, Z
     e1e:	80 83       	st	Z, r24
     e20:	08 95       	ret

00000e22 <__vector_1>:
	}
}
ISR(INT0_vect)
{
     e22:	1f 92       	push	r1
     e24:	0f 92       	push	r0
     e26:	0f b6       	in	r0, 0x3f	; 63
     e28:	0f 92       	push	r0
     e2a:	0b b6       	in	r0, 0x3b	; 59
     e2c:	0f 92       	push	r0
     e2e:	11 24       	eor	r1, r1
     e30:	2f 93       	push	r18
     e32:	3f 93       	push	r19
     e34:	4f 93       	push	r20
     e36:	5f 93       	push	r21
     e38:	6f 93       	push	r22
     e3a:	7f 93       	push	r23
     e3c:	8f 93       	push	r24
     e3e:	9f 93       	push	r25
     e40:	af 93       	push	r26
     e42:	bf 93       	push	r27
     e44:	ef 93       	push	r30
     e46:	ff 93       	push	r31
   cAllisr();
     e48:	e0 91 c2 02 	lds	r30, 0x02C2
     e4c:	f0 91 c3 02 	lds	r31, 0x02C3
     e50:	19 95       	eicall
}
     e52:	ff 91       	pop	r31
     e54:	ef 91       	pop	r30
     e56:	bf 91       	pop	r27
     e58:	af 91       	pop	r26
     e5a:	9f 91       	pop	r25
     e5c:	8f 91       	pop	r24
     e5e:	7f 91       	pop	r23
     e60:	6f 91       	pop	r22
     e62:	5f 91       	pop	r21
     e64:	4f 91       	pop	r20
     e66:	3f 91       	pop	r19
     e68:	2f 91       	pop	r18
     e6a:	0f 90       	pop	r0
     e6c:	0b be       	out	0x3b, r0	; 59
     e6e:	0f 90       	pop	r0
     e70:	0f be       	out	0x3f, r0	; 63
     e72:	0f 90       	pop	r0
     e74:	1f 90       	pop	r1
     e76:	18 95       	reti

00000e78 <__vector_2>:
ISR(INT1_vect)
{
     e78:	1f 92       	push	r1
     e7a:	0f 92       	push	r0
     e7c:	0f b6       	in	r0, 0x3f	; 63
     e7e:	0f 92       	push	r0
     e80:	0b b6       	in	r0, 0x3b	; 59
     e82:	0f 92       	push	r0
     e84:	11 24       	eor	r1, r1
     e86:	2f 93       	push	r18
     e88:	3f 93       	push	r19
     e8a:	4f 93       	push	r20
     e8c:	5f 93       	push	r21
     e8e:	6f 93       	push	r22
     e90:	7f 93       	push	r23
     e92:	8f 93       	push	r24
     e94:	9f 93       	push	r25
     e96:	af 93       	push	r26
     e98:	bf 93       	push	r27
     e9a:	ef 93       	push	r30
     e9c:	ff 93       	push	r31
   cAllisr();
     e9e:	e0 91 c2 02 	lds	r30, 0x02C2
     ea2:	f0 91 c3 02 	lds	r31, 0x02C3
     ea6:	19 95       	eicall
}
     ea8:	ff 91       	pop	r31
     eaa:	ef 91       	pop	r30
     eac:	bf 91       	pop	r27
     eae:	af 91       	pop	r26
     eb0:	9f 91       	pop	r25
     eb2:	8f 91       	pop	r24
     eb4:	7f 91       	pop	r23
     eb6:	6f 91       	pop	r22
     eb8:	5f 91       	pop	r21
     eba:	4f 91       	pop	r20
     ebc:	3f 91       	pop	r19
     ebe:	2f 91       	pop	r18
     ec0:	0f 90       	pop	r0
     ec2:	0b be       	out	0x3b, r0	; 59
     ec4:	0f 90       	pop	r0
     ec6:	0f be       	out	0x3f, r0	; 63
     ec8:	0f 90       	pop	r0
     eca:	1f 90       	pop	r1
     ecc:	18 95       	reti

00000ece <__vector_3>:
ISR(INT2_vect)
{
     ece:	1f 92       	push	r1
     ed0:	0f 92       	push	r0
     ed2:	0f b6       	in	r0, 0x3f	; 63
     ed4:	0f 92       	push	r0
     ed6:	0b b6       	in	r0, 0x3b	; 59
     ed8:	0f 92       	push	r0
     eda:	11 24       	eor	r1, r1
     edc:	2f 93       	push	r18
     ede:	3f 93       	push	r19
     ee0:	4f 93       	push	r20
     ee2:	5f 93       	push	r21
     ee4:	6f 93       	push	r22
     ee6:	7f 93       	push	r23
     ee8:	8f 93       	push	r24
     eea:	9f 93       	push	r25
     eec:	af 93       	push	r26
     eee:	bf 93       	push	r27
     ef0:	ef 93       	push	r30
     ef2:	ff 93       	push	r31
   cAllisr();
     ef4:	e0 91 c2 02 	lds	r30, 0x02C2
     ef8:	f0 91 c3 02 	lds	r31, 0x02C3
     efc:	19 95       	eicall
}
     efe:	ff 91       	pop	r31
     f00:	ef 91       	pop	r30
     f02:	bf 91       	pop	r27
     f04:	af 91       	pop	r26
     f06:	9f 91       	pop	r25
     f08:	8f 91       	pop	r24
     f0a:	7f 91       	pop	r23
     f0c:	6f 91       	pop	r22
     f0e:	5f 91       	pop	r21
     f10:	4f 91       	pop	r20
     f12:	3f 91       	pop	r19
     f14:	2f 91       	pop	r18
     f16:	0f 90       	pop	r0
     f18:	0b be       	out	0x3b, r0	; 59
     f1a:	0f 90       	pop	r0
     f1c:	0f be       	out	0x3f, r0	; 63
     f1e:	0f 90       	pop	r0
     f20:	1f 90       	pop	r1
     f22:	18 95       	reti

00000f24 <__vector_4>:
ISR(INT3_vect)
{
     f24:	1f 92       	push	r1
     f26:	0f 92       	push	r0
     f28:	0f b6       	in	r0, 0x3f	; 63
     f2a:	0f 92       	push	r0
     f2c:	0b b6       	in	r0, 0x3b	; 59
     f2e:	0f 92       	push	r0
     f30:	11 24       	eor	r1, r1
     f32:	2f 93       	push	r18
     f34:	3f 93       	push	r19
     f36:	4f 93       	push	r20
     f38:	5f 93       	push	r21
     f3a:	6f 93       	push	r22
     f3c:	7f 93       	push	r23
     f3e:	8f 93       	push	r24
     f40:	9f 93       	push	r25
     f42:	af 93       	push	r26
     f44:	bf 93       	push	r27
     f46:	ef 93       	push	r30
     f48:	ff 93       	push	r31
   cAllisr();
     f4a:	e0 91 c2 02 	lds	r30, 0x02C2
     f4e:	f0 91 c3 02 	lds	r31, 0x02C3
     f52:	19 95       	eicall
}
     f54:	ff 91       	pop	r31
     f56:	ef 91       	pop	r30
     f58:	bf 91       	pop	r27
     f5a:	af 91       	pop	r26
     f5c:	9f 91       	pop	r25
     f5e:	8f 91       	pop	r24
     f60:	7f 91       	pop	r23
     f62:	6f 91       	pop	r22
     f64:	5f 91       	pop	r21
     f66:	4f 91       	pop	r20
     f68:	3f 91       	pop	r19
     f6a:	2f 91       	pop	r18
     f6c:	0f 90       	pop	r0
     f6e:	0b be       	out	0x3b, r0	; 59
     f70:	0f 90       	pop	r0
     f72:	0f be       	out	0x3f, r0	; 63
     f74:	0f 90       	pop	r0
     f76:	1f 90       	pop	r1
     f78:	18 95       	reti

00000f7a <__vector_5>:
ISR(INT4_vect)
{
     f7a:	1f 92       	push	r1
     f7c:	0f 92       	push	r0
     f7e:	0f b6       	in	r0, 0x3f	; 63
     f80:	0f 92       	push	r0
     f82:	0b b6       	in	r0, 0x3b	; 59
     f84:	0f 92       	push	r0
     f86:	11 24       	eor	r1, r1
     f88:	2f 93       	push	r18
     f8a:	3f 93       	push	r19
     f8c:	4f 93       	push	r20
     f8e:	5f 93       	push	r21
     f90:	6f 93       	push	r22
     f92:	7f 93       	push	r23
     f94:	8f 93       	push	r24
     f96:	9f 93       	push	r25
     f98:	af 93       	push	r26
     f9a:	bf 93       	push	r27
     f9c:	ef 93       	push	r30
     f9e:	ff 93       	push	r31
    cAllisr();
     fa0:	e0 91 c2 02 	lds	r30, 0x02C2
     fa4:	f0 91 c3 02 	lds	r31, 0x02C3
     fa8:	19 95       	eicall
}
     faa:	ff 91       	pop	r31
     fac:	ef 91       	pop	r30
     fae:	bf 91       	pop	r27
     fb0:	af 91       	pop	r26
     fb2:	9f 91       	pop	r25
     fb4:	8f 91       	pop	r24
     fb6:	7f 91       	pop	r23
     fb8:	6f 91       	pop	r22
     fba:	5f 91       	pop	r21
     fbc:	4f 91       	pop	r20
     fbe:	3f 91       	pop	r19
     fc0:	2f 91       	pop	r18
     fc2:	0f 90       	pop	r0
     fc4:	0b be       	out	0x3b, r0	; 59
     fc6:	0f 90       	pop	r0
     fc8:	0f be       	out	0x3f, r0	; 63
     fca:	0f 90       	pop	r0
     fcc:	1f 90       	pop	r1
     fce:	18 95       	reti

00000fd0 <__vector_6>:
ISR(INT5_vect)
{
     fd0:	1f 92       	push	r1
     fd2:	0f 92       	push	r0
     fd4:	0f b6       	in	r0, 0x3f	; 63
     fd6:	0f 92       	push	r0
     fd8:	0b b6       	in	r0, 0x3b	; 59
     fda:	0f 92       	push	r0
     fdc:	11 24       	eor	r1, r1
     fde:	2f 93       	push	r18
     fe0:	3f 93       	push	r19
     fe2:	4f 93       	push	r20
     fe4:	5f 93       	push	r21
     fe6:	6f 93       	push	r22
     fe8:	7f 93       	push	r23
     fea:	8f 93       	push	r24
     fec:	9f 93       	push	r25
     fee:	af 93       	push	r26
     ff0:	bf 93       	push	r27
     ff2:	ef 93       	push	r30
     ff4:	ff 93       	push	r31
    cAllisr();
     ff6:	e0 91 c2 02 	lds	r30, 0x02C2
     ffa:	f0 91 c3 02 	lds	r31, 0x02C3
     ffe:	19 95       	eicall
}
    1000:	ff 91       	pop	r31
    1002:	ef 91       	pop	r30
    1004:	bf 91       	pop	r27
    1006:	af 91       	pop	r26
    1008:	9f 91       	pop	r25
    100a:	8f 91       	pop	r24
    100c:	7f 91       	pop	r23
    100e:	6f 91       	pop	r22
    1010:	5f 91       	pop	r21
    1012:	4f 91       	pop	r20
    1014:	3f 91       	pop	r19
    1016:	2f 91       	pop	r18
    1018:	0f 90       	pop	r0
    101a:	0b be       	out	0x3b, r0	; 59
    101c:	0f 90       	pop	r0
    101e:	0f be       	out	0x3f, r0	; 63
    1020:	0f 90       	pop	r0
    1022:	1f 90       	pop	r1
    1024:	18 95       	reti

00001026 <__vector_7>:
ISR(INT6_vect)
{
    1026:	1f 92       	push	r1
    1028:	0f 92       	push	r0
    102a:	0f b6       	in	r0, 0x3f	; 63
    102c:	0f 92       	push	r0
    102e:	0b b6       	in	r0, 0x3b	; 59
    1030:	0f 92       	push	r0
    1032:	11 24       	eor	r1, r1
    1034:	2f 93       	push	r18
    1036:	3f 93       	push	r19
    1038:	4f 93       	push	r20
    103a:	5f 93       	push	r21
    103c:	6f 93       	push	r22
    103e:	7f 93       	push	r23
    1040:	8f 93       	push	r24
    1042:	9f 93       	push	r25
    1044:	af 93       	push	r26
    1046:	bf 93       	push	r27
    1048:	ef 93       	push	r30
    104a:	ff 93       	push	r31
    cAllisr();
    104c:	e0 91 c2 02 	lds	r30, 0x02C2
    1050:	f0 91 c3 02 	lds	r31, 0x02C3
    1054:	19 95       	eicall
}
    1056:	ff 91       	pop	r31
    1058:	ef 91       	pop	r30
    105a:	bf 91       	pop	r27
    105c:	af 91       	pop	r26
    105e:	9f 91       	pop	r25
    1060:	8f 91       	pop	r24
    1062:	7f 91       	pop	r23
    1064:	6f 91       	pop	r22
    1066:	5f 91       	pop	r21
    1068:	4f 91       	pop	r20
    106a:	3f 91       	pop	r19
    106c:	2f 91       	pop	r18
    106e:	0f 90       	pop	r0
    1070:	0b be       	out	0x3b, r0	; 59
    1072:	0f 90       	pop	r0
    1074:	0f be       	out	0x3f, r0	; 63
    1076:	0f 90       	pop	r0
    1078:	1f 90       	pop	r1
    107a:	18 95       	reti

0000107c <__vector_8>:
ISR(INT7_vect)
{
    107c:	1f 92       	push	r1
    107e:	0f 92       	push	r0
    1080:	0f b6       	in	r0, 0x3f	; 63
    1082:	0f 92       	push	r0
    1084:	0b b6       	in	r0, 0x3b	; 59
    1086:	0f 92       	push	r0
    1088:	11 24       	eor	r1, r1
    108a:	2f 93       	push	r18
    108c:	3f 93       	push	r19
    108e:	4f 93       	push	r20
    1090:	5f 93       	push	r21
    1092:	6f 93       	push	r22
    1094:	7f 93       	push	r23
    1096:	8f 93       	push	r24
    1098:	9f 93       	push	r25
    109a:	af 93       	push	r26
    109c:	bf 93       	push	r27
    109e:	ef 93       	push	r30
    10a0:	ff 93       	push	r31
    cAllisr();
    10a2:	e0 91 c2 02 	lds	r30, 0x02C2
    10a6:	f0 91 c3 02 	lds	r31, 0x02C3
    10aa:	19 95       	eicall
}
    10ac:	ff 91       	pop	r31
    10ae:	ef 91       	pop	r30
    10b0:	bf 91       	pop	r27
    10b2:	af 91       	pop	r26
    10b4:	9f 91       	pop	r25
    10b6:	8f 91       	pop	r24
    10b8:	7f 91       	pop	r23
    10ba:	6f 91       	pop	r22
    10bc:	5f 91       	pop	r21
    10be:	4f 91       	pop	r20
    10c0:	3f 91       	pop	r19
    10c2:	2f 91       	pop	r18
    10c4:	0f 90       	pop	r0
    10c6:	0b be       	out	0x3b, r0	; 59
    10c8:	0f 90       	pop	r0
    10ca:	0f be       	out	0x3f, r0	; 63
    10cc:	0f 90       	pop	r0
    10ce:	1f 90       	pop	r1
    10d0:	18 95       	reti

000010d2 <_Z7forwardv>:
char d;
Cytron motors(dir1,pwm1,dir2,pwm2,dir3,pwm3,dir4,pwm4);
/******************Main Code********************/

void forward()
{
    10d2:	2f 92       	push	r2
    10d4:	3f 92       	push	r3
    10d6:	4f 92       	push	r4
    10d8:	5f 92       	push	r5
    10da:	6f 92       	push	r6
    10dc:	7f 92       	push	r7
    10de:	8f 92       	push	r8
    10e0:	9f 92       	push	r9
    10e2:	af 92       	push	r10
    10e4:	bf 92       	push	r11
    10e6:	cf 92       	push	r12
    10e8:	df 92       	push	r13
    10ea:	ef 92       	push	r14
    10ec:	ff 92       	push	r15
    10ee:	0f 93       	push	r16
    10f0:	1f 93       	push	r17
    10f2:	df 93       	push	r29
    10f4:	cf 93       	push	r28
    10f6:	cd b7       	in	r28, 0x3d	; 61
    10f8:	de b7       	in	r29, 0x3e	; 62
    10fa:	60 97       	sbiw	r28, 0x10	; 16
    10fc:	0f b6       	in	r0, 0x3f	; 63
    10fe:	f8 94       	cli
    1100:	de bf       	out	0x3e, r29	; 62
    1102:	0f be       	out	0x3f, r0	; 63
    1104:	cd bf       	out	0x3d, r28	; 61
	if(d=='b')
    1106:	80 91 d4 02 	lds	r24, 0x02D4
    110a:	82 36       	cpi	r24, 0x62	; 98
    110c:	09 f0       	breq	.+2      	; 0x1110 <_Z7forwardv+0x3e>
    110e:	14 c1       	rjmp	.+552    	; 0x1338 <_Z7forwardv+0x266>
				delay(interval);		
			}
			
		}

		else if(pWm<lAstpwm||pWm1<lAstpwm1||pWm2<lAstpwm2||pWm3<lAstpwm3){				//decelerate
    1110:	80 91 d7 02 	lds	r24, 0x02D7
    1114:	88 23       	and	r24, r24
    1116:	09 f0       	breq	.+2      	; 0x111a <_Z7forwardv+0x48>
    1118:	9b c0       	rjmp	.+310    	; 0x1250 <_Z7forwardv+0x17e>
    111a:	80 91 dc 02 	lds	r24, 0x02DC
    111e:	88 23       	and	r24, r24
    1120:	09 f0       	breq	.+2      	; 0x1124 <_Z7forwardv+0x52>
    1122:	96 c0       	rjmp	.+300    	; 0x1250 <_Z7forwardv+0x17e>
    1124:	80 91 e0 02 	lds	r24, 0x02E0
    1128:	88 23       	and	r24, r24
    112a:	09 f0       	breq	.+2      	; 0x112e <_Z7forwardv+0x5c>
    112c:	91 c0       	rjmp	.+290    	; 0x1250 <_Z7forwardv+0x17e>
    112e:	80 91 e4 02 	lds	r24, 0x02E4
    1132:	88 23       	and	r24, r24
    1134:	09 f0       	breq	.+2      	; 0x1138 <_Z7forwardv+0x66>
    1136:	8c c0       	rjmp	.+280    	; 0x1250 <_Z7forwardv+0x17e>
    1138:	eb c0       	rjmp	.+470    	; 0x1310 <_Z7forwardv+0x23e>

			for(lAstpwm=lAstpwm,lAstpwm1=lAstpwm1,lAstpwm2=lAstpwm2,lAstpwm3=lAstpwm3;lAstpwm>pWm||lAstpwm1>pWm1||lAstpwm2>pWm2||lAstpwm3>pWm3;){		//decrease the speed step by step
				if (pWm<lAstpwm){
					lAstpwm-=step1;
    113a:	f2 01       	movw	r30, r4
    113c:	80 81       	ld	r24, Z
    113e:	68 1b       	sub	r22, r24
    1140:	e9 81       	ldd	r30, Y+1	; 0x01
    1142:	fa 81       	ldd	r31, Y+2	; 0x02
    1144:	60 83       	st	Z, r22
					analogWrite(pWmpin,constrain(lAstpwm,pWm,255));
    1146:	70 e0       	ldi	r23, 0x00	; 0
    1148:	80 e0       	ldi	r24, 0x00	; 0
    114a:	90 e0       	ldi	r25, 0x00	; 0
    114c:	20 e0       	ldi	r18, 0x00	; 0
    114e:	30 e0       	ldi	r19, 0x00	; 0
    1150:	a9 01       	movw	r20, r18
    1152:	0f 2e       	mov	r0, r31
    1154:	ff ef       	ldi	r31, 0xFF	; 255
    1156:	ef 2e       	mov	r14, r31
    1158:	f0 e0       	ldi	r31, 0x00	; 0
    115a:	ff 2e       	mov	r15, r31
    115c:	f0 e0       	ldi	r31, 0x00	; 0
    115e:	0f 2f       	mov	r16, r31
    1160:	f0 e0       	ldi	r31, 0x00	; 0
    1162:	1f 2f       	mov	r17, r31
    1164:	f0 2d       	mov	r31, r0
    1166:	0e 94 cc 05 	call	0xb98	; 0xb98 <_Z9constrainlll>
    116a:	eb 81       	ldd	r30, Y+3	; 0x03
    116c:	fc 81       	ldd	r31, Y+4	; 0x04
    116e:	80 81       	ld	r24, Z
    1170:	0e 94 11 04 	call	0x822	; 0x822 <_Z11analogWritehh>
				}
				if (pWm1<lAstpwm1){
    1174:	ec ed       	ldi	r30, 0xDC	; 220
    1176:	f2 e0       	ldi	r31, 0x02	; 2
    1178:	60 81       	ld	r22, Z
    117a:	66 23       	and	r22, r22
    117c:	e9 f0       	breq	.+58     	; 0x11b8 <_Z7forwardv+0xe6>
					lAstpwm1-=step2;
    117e:	f1 01       	movw	r30, r2
    1180:	80 81       	ld	r24, Z
    1182:	68 1b       	sub	r22, r24
    1184:	ed 81       	ldd	r30, Y+5	; 0x05
    1186:	fe 81       	ldd	r31, Y+6	; 0x06
    1188:	60 83       	st	Z, r22
					analogWrite(pWmpin1,constrain(lAstpwm1,pWm1,255));
    118a:	70 e0       	ldi	r23, 0x00	; 0
    118c:	80 e0       	ldi	r24, 0x00	; 0
    118e:	90 e0       	ldi	r25, 0x00	; 0
    1190:	20 e0       	ldi	r18, 0x00	; 0
    1192:	30 e0       	ldi	r19, 0x00	; 0
    1194:	a9 01       	movw	r20, r18
    1196:	0f 2e       	mov	r0, r31
    1198:	ff ef       	ldi	r31, 0xFF	; 255
    119a:	ef 2e       	mov	r14, r31
    119c:	f0 e0       	ldi	r31, 0x00	; 0
    119e:	ff 2e       	mov	r15, r31
    11a0:	f0 e0       	ldi	r31, 0x00	; 0
    11a2:	0f 2f       	mov	r16, r31
    11a4:	f0 e0       	ldi	r31, 0x00	; 0
    11a6:	1f 2f       	mov	r17, r31
    11a8:	f0 2d       	mov	r31, r0
    11aa:	0e 94 cc 05 	call	0xb98	; 0xb98 <_Z9constrainlll>
    11ae:	ef 81       	ldd	r30, Y+7	; 0x07
    11b0:	f8 85       	ldd	r31, Y+8	; 0x08
    11b2:	80 81       	ld	r24, Z
    11b4:	0e 94 11 04 	call	0x822	; 0x822 <_Z11analogWritehh>
				}
				if (pWm2<lAstpwm2){
    11b8:	f6 01       	movw	r30, r12
    11ba:	60 81       	ld	r22, Z
    11bc:	66 23       	and	r22, r22
    11be:	f1 f0       	breq	.+60     	; 0x11fc <_Z7forwardv+0x12a>
					lAstpwm2-=step3;
    11c0:	e1 ee       	ldi	r30, 0xE1	; 225
    11c2:	f2 e0       	ldi	r31, 0x02	; 2
    11c4:	80 81       	ld	r24, Z
    11c6:	68 1b       	sub	r22, r24
    11c8:	e9 85       	ldd	r30, Y+9	; 0x09
    11ca:	fa 85       	ldd	r31, Y+10	; 0x0a
    11cc:	60 83       	st	Z, r22
					analogWrite(pWmpin2,constrain(lAstpwm2,pWm2,255));
    11ce:	70 e0       	ldi	r23, 0x00	; 0
    11d0:	80 e0       	ldi	r24, 0x00	; 0
    11d2:	90 e0       	ldi	r25, 0x00	; 0
    11d4:	20 e0       	ldi	r18, 0x00	; 0
    11d6:	30 e0       	ldi	r19, 0x00	; 0
    11d8:	a9 01       	movw	r20, r18
    11da:	0f 2e       	mov	r0, r31
    11dc:	ff ef       	ldi	r31, 0xFF	; 255
    11de:	ef 2e       	mov	r14, r31
    11e0:	f0 e0       	ldi	r31, 0x00	; 0
    11e2:	ff 2e       	mov	r15, r31
    11e4:	f0 e0       	ldi	r31, 0x00	; 0
    11e6:	0f 2f       	mov	r16, r31
    11e8:	f0 e0       	ldi	r31, 0x00	; 0
    11ea:	1f 2f       	mov	r17, r31
    11ec:	f0 2d       	mov	r31, r0
    11ee:	0e 94 cc 05 	call	0xb98	; 0xb98 <_Z9constrainlll>
    11f2:	eb 85       	ldd	r30, Y+11	; 0x0b
    11f4:	fc 85       	ldd	r31, Y+12	; 0x0c
    11f6:	80 81       	ld	r24, Z
    11f8:	0e 94 11 04 	call	0x822	; 0x822 <_Z11analogWritehh>
				}
				if (pWm3<lAstpwm3){
    11fc:	f5 01       	movw	r30, r10
    11fe:	60 81       	ld	r22, Z
    1200:	66 23       	and	r22, r22
    1202:	f1 f0       	breq	.+60     	; 0x1240 <_Z7forwardv+0x16e>
					lAstpwm3-=step4;
    1204:	e5 ee       	ldi	r30, 0xE5	; 229
    1206:	f2 e0       	ldi	r31, 0x02	; 2
    1208:	80 81       	ld	r24, Z
    120a:	68 1b       	sub	r22, r24
    120c:	ed 85       	ldd	r30, Y+13	; 0x0d
    120e:	fe 85       	ldd	r31, Y+14	; 0x0e
    1210:	60 83       	st	Z, r22
					analogWrite(pWmpin3,constrain(lAstpwm3,pWm3,255));
    1212:	70 e0       	ldi	r23, 0x00	; 0
    1214:	80 e0       	ldi	r24, 0x00	; 0
    1216:	90 e0       	ldi	r25, 0x00	; 0
    1218:	20 e0       	ldi	r18, 0x00	; 0
    121a:	30 e0       	ldi	r19, 0x00	; 0
    121c:	a9 01       	movw	r20, r18
    121e:	0f 2e       	mov	r0, r31
    1220:	ff ef       	ldi	r31, 0xFF	; 255
    1222:	ef 2e       	mov	r14, r31
    1224:	f0 e0       	ldi	r31, 0x00	; 0
    1226:	ff 2e       	mov	r15, r31
    1228:	f0 e0       	ldi	r31, 0x00	; 0
    122a:	0f 2f       	mov	r16, r31
    122c:	f0 e0       	ldi	r31, 0x00	; 0
    122e:	1f 2f       	mov	r17, r31
    1230:	f0 2d       	mov	r31, r0
    1232:	0e 94 cc 05 	call	0xb98	; 0xb98 <_Z9constrainlll>
    1236:	ef 85       	ldd	r30, Y+15	; 0x0f
    1238:	f8 89       	ldd	r31, Y+16	; 0x10
    123a:	80 81       	ld	r24, Z
    123c:	0e 94 11 04 	call	0x822	; 0x822 <_Z11analogWritehh>
				}
				delay(interval);		
    1240:	f3 01       	movw	r30, r6
    1242:	60 81       	ld	r22, Z
    1244:	70 e0       	ldi	r23, 0x00	; 0
    1246:	80 e0       	ldi	r24, 0x00	; 0
    1248:	90 e0       	ldi	r25, 0x00	; 0
    124a:	0e 94 4a 05 	call	0xa94	; 0xa94 <_Z5delaym>
    124e:	4b c0       	rjmp	.+150    	; 0x12e6 <_Z7forwardv+0x214>
			
		}

		else if(pWm<lAstpwm||pWm1<lAstpwm1||pWm2<lAstpwm2||pWm3<lAstpwm3){				//decelerate

			for(lAstpwm=lAstpwm,lAstpwm1=lAstpwm1,lAstpwm2=lAstpwm2,lAstpwm3=lAstpwm3;lAstpwm>pWm||lAstpwm1>pWm1||lAstpwm2>pWm2||lAstpwm3>pWm3;){		//decrease the speed step by step
    1250:	0f 2e       	mov	r0, r31
    1252:	f7 ed       	ldi	r31, 0xD7	; 215
    1254:	8f 2e       	mov	r8, r31
    1256:	f2 e0       	ldi	r31, 0x02	; 2
    1258:	9f 2e       	mov	r9, r31
    125a:	f0 2d       	mov	r31, r0
				if (pWm<lAstpwm){
					lAstpwm-=step1;
    125c:	0f 2e       	mov	r0, r31
    125e:	f8 ed       	ldi	r31, 0xD8	; 216
    1260:	4f 2e       	mov	r4, r31
    1262:	f2 e0       	ldi	r31, 0x02	; 2
    1264:	5f 2e       	mov	r5, r31
    1266:	f0 2d       	mov	r31, r0
    1268:	a2 01       	movw	r20, r4
    126a:	41 50       	subi	r20, 0x01	; 1
    126c:	50 40       	sbci	r21, 0x00	; 0
    126e:	5a 83       	std	Y+2, r21	; 0x02
    1270:	49 83       	std	Y+1, r20	; 0x01
					analogWrite(pWmpin,constrain(lAstpwm,pWm,255));
    1272:	c2 01       	movw	r24, r4
    1274:	02 97       	sbiw	r24, 0x02	; 2
    1276:	9c 83       	std	Y+4, r25	; 0x04
    1278:	8b 83       	std	Y+3, r24	; 0x03
			
		}

		else if(pWm<lAstpwm||pWm1<lAstpwm1||pWm2<lAstpwm2||pWm3<lAstpwm3){				//decelerate

			for(lAstpwm=lAstpwm,lAstpwm1=lAstpwm1,lAstpwm2=lAstpwm2,lAstpwm3=lAstpwm3;lAstpwm>pWm||lAstpwm1>pWm1||lAstpwm2>pWm2||lAstpwm3>pWm3;){		//decrease the speed step by step
    127a:	0f 2e       	mov	r0, r31
    127c:	f0 ee       	ldi	r31, 0xE0	; 224
    127e:	cf 2e       	mov	r12, r31
    1280:	f2 e0       	ldi	r31, 0x02	; 2
    1282:	df 2e       	mov	r13, r31
    1284:	f0 2d       	mov	r31, r0
    1286:	0f 2e       	mov	r0, r31
    1288:	f4 ee       	ldi	r31, 0xE4	; 228
    128a:	af 2e       	mov	r10, r31
    128c:	f2 e0       	ldi	r31, 0x02	; 2
    128e:	bf 2e       	mov	r11, r31
    1290:	f0 2d       	mov	r31, r0
				if (pWm<lAstpwm){
					lAstpwm-=step1;
					analogWrite(pWmpin,constrain(lAstpwm,pWm,255));
				}
				if (pWm1<lAstpwm1){
					lAstpwm1-=step2;
    1292:	0f 2e       	mov	r0, r31
    1294:	fd ed       	ldi	r31, 0xDD	; 221
    1296:	2f 2e       	mov	r2, r31
    1298:	f2 e0       	ldi	r31, 0x02	; 2
    129a:	3f 2e       	mov	r3, r31
    129c:	f0 2d       	mov	r31, r0
    129e:	f1 01       	movw	r30, r2
    12a0:	31 97       	sbiw	r30, 0x01	; 1
    12a2:	fe 83       	std	Y+6, r31	; 0x06
    12a4:	ed 83       	std	Y+5, r30	; 0x05
					analogWrite(pWmpin1,constrain(lAstpwm1,pWm1,255));
    12a6:	a1 01       	movw	r20, r2
    12a8:	42 50       	subi	r20, 0x02	; 2
    12aa:	50 40       	sbci	r21, 0x00	; 0
    12ac:	58 87       	std	Y+8, r21	; 0x08
    12ae:	4f 83       	std	Y+7, r20	; 0x07
				}
				if (pWm2<lAstpwm2){
					lAstpwm2-=step3;
    12b0:	81 ee       	ldi	r24, 0xE1	; 225
    12b2:	92 e0       	ldi	r25, 0x02	; 2
    12b4:	01 97       	sbiw	r24, 0x01	; 1
    12b6:	9a 87       	std	Y+10, r25	; 0x0a
    12b8:	89 87       	std	Y+9, r24	; 0x09
					analogWrite(pWmpin2,constrain(lAstpwm2,pWm2,255));
    12ba:	e1 ee       	ldi	r30, 0xE1	; 225
    12bc:	f2 e0       	ldi	r31, 0x02	; 2
    12be:	32 97       	sbiw	r30, 0x02	; 2
    12c0:	fc 87       	std	Y+12, r31	; 0x0c
    12c2:	eb 87       	std	Y+11, r30	; 0x0b
				}
				if (pWm3<lAstpwm3){
					lAstpwm3-=step4;
    12c4:	45 ee       	ldi	r20, 0xE5	; 229
    12c6:	52 e0       	ldi	r21, 0x02	; 2
    12c8:	41 50       	subi	r20, 0x01	; 1
    12ca:	50 40       	sbci	r21, 0x00	; 0
    12cc:	5e 87       	std	Y+14, r21	; 0x0e
    12ce:	4d 87       	std	Y+13, r20	; 0x0d
					analogWrite(pWmpin3,constrain(lAstpwm3,pWm3,255));
    12d0:	85 ee       	ldi	r24, 0xE5	; 229
    12d2:	92 e0       	ldi	r25, 0x02	; 2
    12d4:	02 97       	sbiw	r24, 0x02	; 2
    12d6:	98 8b       	std	Y+16, r25	; 0x10
    12d8:	8f 87       	std	Y+15, r24	; 0x0f
				}
				delay(interval);		
    12da:	0f 2e       	mov	r0, r31
    12dc:	f9 ed       	ldi	r31, 0xD9	; 217
    12de:	6f 2e       	mov	r6, r31
    12e0:	f2 e0       	ldi	r31, 0x02	; 2
    12e2:	7f 2e       	mov	r7, r31
    12e4:	f0 2d       	mov	r31, r0
			
		}

		else if(pWm<lAstpwm||pWm1<lAstpwm1||pWm2<lAstpwm2||pWm3<lAstpwm3){				//decelerate

			for(lAstpwm=lAstpwm,lAstpwm1=lAstpwm1,lAstpwm2=lAstpwm2,lAstpwm3=lAstpwm3;lAstpwm>pWm||lAstpwm1>pWm1||lAstpwm2>pWm2||lAstpwm3>pWm3;){		//decrease the speed step by step
    12e6:	f4 01       	movw	r30, r8
    12e8:	60 81       	ld	r22, Z
    12ea:	66 23       	and	r22, r22
    12ec:	09 f0       	breq	.+2      	; 0x12f0 <_Z7forwardv+0x21e>
    12ee:	25 cf       	rjmp	.-438    	; 0x113a <_Z7forwardv+0x68>
    12f0:	ec ed       	ldi	r30, 0xDC	; 220
    12f2:	f2 e0       	ldi	r31, 0x02	; 2
    12f4:	80 81       	ld	r24, Z
    12f6:	88 23       	and	r24, r24
    12f8:	09 f0       	breq	.+2      	; 0x12fc <_Z7forwardv+0x22a>
    12fa:	3c cf       	rjmp	.-392    	; 0x1174 <_Z7forwardv+0xa2>
    12fc:	f6 01       	movw	r30, r12
    12fe:	80 81       	ld	r24, Z
    1300:	88 23       	and	r24, r24
    1302:	09 f0       	breq	.+2      	; 0x1306 <_Z7forwardv+0x234>
    1304:	37 cf       	rjmp	.-402    	; 0x1174 <_Z7forwardv+0xa2>
    1306:	f5 01       	movw	r30, r10
    1308:	80 81       	ld	r24, Z
    130a:	88 23       	and	r24, r24
    130c:	a9 f0       	breq	.+42     	; 0x1338 <_Z7forwardv+0x266>
    130e:	32 cf       	rjmp	.-412    	; 0x1174 <_Z7forwardv+0xa2>
				delay(interval);		
			}
		}

		else{		//no change
			analogWrite(pWmpin,pWm);
    1310:	80 91 d6 02 	lds	r24, 0x02D6
    1314:	60 e0       	ldi	r22, 0x00	; 0
    1316:	0e 94 11 04 	call	0x822	; 0x822 <_Z11analogWritehh>
			analogWrite(pWmpin1,pWm1);
    131a:	80 91 db 02 	lds	r24, 0x02DB
    131e:	60 e0       	ldi	r22, 0x00	; 0
    1320:	0e 94 11 04 	call	0x822	; 0x822 <_Z11analogWritehh>
			analogWrite(pWmpin2,pWm2);
    1324:	80 91 df 02 	lds	r24, 0x02DF
    1328:	60 e0       	ldi	r22, 0x00	; 0
    132a:	0e 94 11 04 	call	0x822	; 0x822 <_Z11analogWritehh>
			analogWrite(pWmpin3,pWm3);
    132e:	80 91 e3 02 	lds	r24, 0x02E3
    1332:	60 e0       	ldi	r22, 0x00	; 0
    1334:	0e 94 11 04 	call	0x822	; 0x822 <_Z11analogWritehh>
	motors.drive(0,0,0,0);
	angle=120;
    1338:	88 e7       	ldi	r24, 0x78	; 120
    133a:	90 e0       	ldi	r25, 0x00	; 0
    133c:	90 93 bd 02 	sts	0x02BD, r25
    1340:	80 93 bc 02 	sts	0x02BC, r24
     }
  }

  void write(int vAl)           //PIN=servo pin no. on mega,vAl=angle F_CPU for the servo at pin
  {
    vAl=constraint(mapAngle(vAl,0,200,iCr/39,iCr/8.3),iCr/40,iCr/8);
    1344:	a0 90 c8 02 	lds	r10, 0x02C8
    1348:	b0 90 c9 02 	lds	r11, 0x02C9
    134c:	c5 01       	movw	r24, r10
    134e:	67 e2       	ldi	r22, 0x27	; 39
    1350:	70 e0       	ldi	r23, 0x00	; 0
    1352:	0e 94 48 1a 	call	0x3490	; 0x3490 <__divmodhi4>
    1356:	6b 01       	movw	r12, r22
    1358:	ee 24       	eor	r14, r14
    135a:	d7 fc       	sbrc	r13, 7
    135c:	e0 94       	com	r14
    135e:	fe 2c       	mov	r15, r14
    1360:	b5 01       	movw	r22, r10
    1362:	88 27       	eor	r24, r24
    1364:	77 fd       	sbrc	r23, 7
    1366:	80 95       	com	r24
    1368:	98 2f       	mov	r25, r24
    136a:	0e 94 3a 19 	call	0x3274	; 0x3274 <__floatsisf>
    136e:	2d ec       	ldi	r18, 0xCD	; 205
    1370:	3c ec       	ldi	r19, 0xCC	; 204
    1372:	44 e0       	ldi	r20, 0x04	; 4
    1374:	51 e4       	ldi	r21, 0x41	; 65
    1376:	0e 94 9f 18 	call	0x313e	; 0x313e <__divsf3>
    137a:	0e 94 07 19 	call	0x320e	; 0x320e <__fixsfsi>
        break; 
    }   
  }
  long mapAngle(long x, long in_min, long in_max, long out_min, long out_max)
  {
    return (x - in_min) * (out_max - out_min) / (in_max - in_min) + out_min;
    137e:	6c 19       	sub	r22, r12
    1380:	7d 09       	sbc	r23, r13
    1382:	8e 09       	sbc	r24, r14
    1384:	9f 09       	sbc	r25, r15
	swerve1.write(angle+correction[0]);
    1386:	20 91 b4 02 	lds	r18, 0x02B4
    138a:	30 91 b5 02 	lds	r19, 0x02B5
    138e:	28 58       	subi	r18, 0x88	; 136
    1390:	3f 4f       	sbci	r19, 0xFF	; 255
     }
  }

  void write(int vAl)           //PIN=servo pin no. on mega,vAl=angle F_CPU for the servo at pin
  {
    vAl=constraint(mapAngle(vAl,0,200,iCr/39,iCr/8.3),iCr/40,iCr/8);
    1392:	44 27       	eor	r20, r20
    1394:	37 fd       	sbrc	r19, 7
    1396:	40 95       	com	r20
    1398:	54 2f       	mov	r21, r20
        break; 
    }   
  }
  long mapAngle(long x, long in_min, long in_max, long out_min, long out_max)
  {
    return (x - in_min) * (out_max - out_min) / (in_max - in_min) + out_min;
    139a:	0e 94 29 1a 	call	0x3452	; 0x3452 <__mulsi3>
    139e:	28 ec       	ldi	r18, 0xC8	; 200
    13a0:	30 e0       	ldi	r19, 0x00	; 0
    13a2:	40 e0       	ldi	r20, 0x00	; 0
    13a4:	50 e0       	ldi	r21, 0x00	; 0
    13a6:	0e 94 5b 1a 	call	0x34b6	; 0x34b6 <__divmodsi4>
    13aa:	89 01       	movw	r16, r18
    13ac:	9a 01       	movw	r18, r20
    13ae:	0c 0d       	add	r16, r12
    13b0:	1d 1d       	adc	r17, r13
    13b2:	2e 1d       	adc	r18, r14
    13b4:	3f 1d       	adc	r19, r15
     }
  }

  void write(int vAl)           //PIN=servo pin no. on mega,vAl=angle F_CPU for the servo at pin
  {
    vAl=constraint(mapAngle(vAl,0,200,iCr/39,iCr/8.3),iCr/40,iCr/8);
    13b6:	c5 01       	movw	r24, r10
    13b8:	bb 20       	and	r11, r11
    13ba:	0c f4       	brge	.+2      	; 0x13be <_Z7forwardv+0x2ec>
    13bc:	07 96       	adiw	r24, 0x07	; 7
    13be:	95 95       	asr	r25
    13c0:	87 95       	ror	r24
    13c2:	95 95       	asr	r25
    13c4:	87 95       	ror	r24
    13c6:	95 95       	asr	r25
    13c8:	87 95       	ror	r24
    13ca:	aa 27       	eor	r26, r26
    13cc:	97 fd       	sbrc	r25, 7
    13ce:	a0 95       	com	r26
    13d0:	ba 2f       	mov	r27, r26
  {
    return (x - in_min) * (out_max - out_min) / (in_max - in_min) + out_min;
  }
  long constraint(long nUm,long lOwer,long uPper)
  {
    if(nUm>uPper){
    13d2:	80 17       	cp	r24, r16
    13d4:	91 07       	cpc	r25, r17
    13d6:	a2 07       	cpc	r26, r18
    13d8:	b3 07       	cpc	r27, r19
    13da:	a4 f0       	brlt	.+40     	; 0x1404 <_Z7forwardv+0x332>
     }
  }

  void write(int vAl)           //PIN=servo pin no. on mega,vAl=angle F_CPU for the servo at pin
  {
    vAl=constraint(mapAngle(vAl,0,200,iCr/39,iCr/8.3),iCr/40,iCr/8);
    13dc:	c5 01       	movw	r24, r10
    13de:	68 e2       	ldi	r22, 0x28	; 40
    13e0:	70 e0       	ldi	r23, 0x00	; 0
    13e2:	0e 94 48 1a 	call	0x3490	; 0x3490 <__divmodhi4>
    13e6:	cb 01       	movw	r24, r22
    13e8:	ac 01       	movw	r20, r24
    13ea:	66 27       	eor	r22, r22
    13ec:	57 fd       	sbrc	r21, 7
    13ee:	60 95       	com	r22
    13f0:	76 2f       	mov	r23, r22
    13f2:	d9 01       	movw	r26, r18
    13f4:	c8 01       	movw	r24, r16
    13f6:	04 17       	cp	r16, r20
    13f8:	15 07       	cpc	r17, r21
    13fa:	26 07       	cpc	r18, r22
    13fc:	37 07       	cpc	r19, r23
    13fe:	14 f4       	brge	.+4      	; 0x1404 <_Z7forwardv+0x332>
    1400:	db 01       	movw	r26, r22
    1402:	ca 01       	movw	r24, r20
    switch(pIn)
    1404:	20 91 ca 02 	lds	r18, 0x02CA
    1408:	28 30       	cpi	r18, 0x08	; 8
    140a:	09 f4       	brne	.+2      	; 0x140e <_Z7forwardv+0x33c>
    140c:	7a c0       	rjmp	.+244    	; 0x1502 <_Z7forwardv+0x430>
    140e:	29 30       	cpi	r18, 0x09	; 9
    1410:	90 f4       	brcc	.+36     	; 0x1436 <_Z7forwardv+0x364>
    1412:	25 30       	cpi	r18, 0x05	; 5
    1414:	d1 f1       	breq	.+116    	; 0x148a <_Z7forwardv+0x3b8>
    1416:	26 30       	cpi	r18, 0x06	; 6
    1418:	38 f4       	brcc	.+14     	; 0x1428 <_Z7forwardv+0x356>
    141a:	22 30       	cpi	r18, 0x02	; 2
    141c:	09 f4       	brne	.+2      	; 0x1420 <_Z7forwardv+0x34e>
    141e:	41 c0       	rjmp	.+130    	; 0x14a2 <_Z7forwardv+0x3d0>
    1420:	23 30       	cpi	r18, 0x03	; 3
    1422:	09 f0       	breq	.+2      	; 0x1426 <_Z7forwardv+0x354>
    1424:	9d c0       	rjmp	.+314    	; 0x1560 <_Z7forwardv+0x48e>
    1426:	49 c0       	rjmp	.+146    	; 0x14ba <_Z7forwardv+0x3e8>
    1428:	26 30       	cpi	r18, 0x06	; 6
    142a:	09 f4       	brne	.+2      	; 0x142e <_Z7forwardv+0x35c>
    142c:	52 c0       	rjmp	.+164    	; 0x14d2 <_Z7forwardv+0x400>
    142e:	27 30       	cpi	r18, 0x07	; 7
    1430:	09 f0       	breq	.+2      	; 0x1434 <_Z7forwardv+0x362>
    1432:	96 c0       	rjmp	.+300    	; 0x1560 <_Z7forwardv+0x48e>
    1434:	5a c0       	rjmp	.+180    	; 0x14ea <_Z7forwardv+0x418>
    1436:	2c 32       	cpi	r18, 0x2C	; 44
    1438:	09 f4       	brne	.+2      	; 0x143c <_Z7forwardv+0x36a>
    143a:	87 c0       	rjmp	.+270    	; 0x154a <_Z7forwardv+0x478>
    143c:	2d 32       	cpi	r18, 0x2D	; 45
    143e:	30 f4       	brcc	.+12     	; 0x144c <_Z7forwardv+0x37a>
    1440:	2b 30       	cpi	r18, 0x0B	; 11
    1442:	59 f0       	breq	.+22     	; 0x145a <_Z7forwardv+0x388>
    1444:	2c 30       	cpi	r18, 0x0C	; 12
    1446:	09 f0       	breq	.+2      	; 0x144a <_Z7forwardv+0x378>
    1448:	8b c0       	rjmp	.+278    	; 0x1560 <_Z7forwardv+0x48e>
    144a:	13 c0       	rjmp	.+38     	; 0x1472 <_Z7forwardv+0x3a0>
    144c:	2d 32       	cpi	r18, 0x2D	; 45
    144e:	09 f4       	brne	.+2      	; 0x1452 <_Z7forwardv+0x380>
    1450:	70 c0       	rjmp	.+224    	; 0x1532 <_Z7forwardv+0x460>
    1452:	2e 32       	cpi	r18, 0x2E	; 46
    1454:	09 f0       	breq	.+2      	; 0x1458 <_Z7forwardv+0x386>
    1456:	84 c0       	rjmp	.+264    	; 0x1560 <_Z7forwardv+0x48e>
    1458:	60 c0       	rjmp	.+192    	; 0x151a <_Z7forwardv+0x448>
    {
      case 11:
        OCR1A=ICR1-vAl;
    145a:	20 91 86 00 	lds	r18, 0x0086
    145e:	30 91 87 00 	lds	r19, 0x0087
    1462:	f9 01       	movw	r30, r18
    1464:	e8 1b       	sub	r30, r24
    1466:	f9 0b       	sbc	r31, r25
    1468:	f0 93 89 00 	sts	0x0089, r31
    146c:	e0 93 88 00 	sts	0x0088, r30
    1470:	77 c0       	rjmp	.+238    	; 0x1560 <_Z7forwardv+0x48e>
        break;
      case 12:
        OCR1B=ICR1-vAl;
    1472:	20 91 86 00 	lds	r18, 0x0086
    1476:	30 91 87 00 	lds	r19, 0x0087
    147a:	a9 01       	movw	r20, r18
    147c:	48 1b       	sub	r20, r24
    147e:	59 0b       	sbc	r21, r25
    1480:	50 93 8b 00 	sts	0x008B, r21
    1484:	40 93 8a 00 	sts	0x008A, r20
    1488:	6b c0       	rjmp	.+214    	; 0x1560 <_Z7forwardv+0x48e>
        break;
      case 5:
        OCR3A=ICR3-vAl;
    148a:	20 91 96 00 	lds	r18, 0x0096
    148e:	30 91 97 00 	lds	r19, 0x0097
    1492:	f9 01       	movw	r30, r18
    1494:	e8 1b       	sub	r30, r24
    1496:	f9 0b       	sbc	r31, r25
    1498:	f0 93 99 00 	sts	0x0099, r31
    149c:	e0 93 98 00 	sts	0x0098, r30
    14a0:	5f c0       	rjmp	.+190    	; 0x1560 <_Z7forwardv+0x48e>
        break;
      case 2:
        OCR3B=ICR3-vAl;
    14a2:	20 91 96 00 	lds	r18, 0x0096
    14a6:	30 91 97 00 	lds	r19, 0x0097
    14aa:	a9 01       	movw	r20, r18
    14ac:	48 1b       	sub	r20, r24
    14ae:	59 0b       	sbc	r21, r25
    14b0:	50 93 9b 00 	sts	0x009B, r21
    14b4:	40 93 9a 00 	sts	0x009A, r20
    14b8:	53 c0       	rjmp	.+166    	; 0x1560 <_Z7forwardv+0x48e>
        break;
      case 3:
        OCR3C=ICR3-vAl;
    14ba:	20 91 96 00 	lds	r18, 0x0096
    14be:	30 91 97 00 	lds	r19, 0x0097
    14c2:	f9 01       	movw	r30, r18
    14c4:	e8 1b       	sub	r30, r24
    14c6:	f9 0b       	sbc	r31, r25
    14c8:	f0 93 9d 00 	sts	0x009D, r31
    14cc:	e0 93 9c 00 	sts	0x009C, r30
    14d0:	47 c0       	rjmp	.+142    	; 0x1560 <_Z7forwardv+0x48e>
        break;
      case 6:
        OCR4A=ICR4-vAl;
    14d2:	20 91 a6 00 	lds	r18, 0x00A6
    14d6:	30 91 a7 00 	lds	r19, 0x00A7
    14da:	a9 01       	movw	r20, r18
    14dc:	48 1b       	sub	r20, r24
    14de:	59 0b       	sbc	r21, r25
    14e0:	50 93 a9 00 	sts	0x00A9, r21
    14e4:	40 93 a8 00 	sts	0x00A8, r20
    14e8:	3b c0       	rjmp	.+118    	; 0x1560 <_Z7forwardv+0x48e>
        break;
      case 7:
        OCR4B=ICR4-vAl;
    14ea:	20 91 a6 00 	lds	r18, 0x00A6
    14ee:	30 91 a7 00 	lds	r19, 0x00A7
    14f2:	f9 01       	movw	r30, r18
    14f4:	e8 1b       	sub	r30, r24
    14f6:	f9 0b       	sbc	r31, r25
    14f8:	f0 93 ab 00 	sts	0x00AB, r31
    14fc:	e0 93 aa 00 	sts	0x00AA, r30
    1500:	2f c0       	rjmp	.+94     	; 0x1560 <_Z7forwardv+0x48e>
        break; 
      case 8:
        OCR4C=ICR4-vAl;
    1502:	20 91 a6 00 	lds	r18, 0x00A6
    1506:	30 91 a7 00 	lds	r19, 0x00A7
    150a:	a9 01       	movw	r20, r18
    150c:	48 1b       	sub	r20, r24
    150e:	59 0b       	sbc	r21, r25
    1510:	50 93 ad 00 	sts	0x00AD, r21
    1514:	40 93 ac 00 	sts	0x00AC, r20
    1518:	23 c0       	rjmp	.+70     	; 0x1560 <_Z7forwardv+0x48e>
        break;
      case 46:
        OCR5A=ICR5-vAl;
    151a:	20 91 26 01 	lds	r18, 0x0126
    151e:	30 91 27 01 	lds	r19, 0x0127
    1522:	f9 01       	movw	r30, r18
    1524:	e8 1b       	sub	r30, r24
    1526:	f9 0b       	sbc	r31, r25
    1528:	f0 93 29 01 	sts	0x0129, r31
    152c:	e0 93 28 01 	sts	0x0128, r30
    1530:	17 c0       	rjmp	.+46     	; 0x1560 <_Z7forwardv+0x48e>
        break;
      case 45:
        OCR5B=ICR5-vAl;
    1532:	20 91 26 01 	lds	r18, 0x0126
    1536:	30 91 27 01 	lds	r19, 0x0127
    153a:	a9 01       	movw	r20, r18
    153c:	48 1b       	sub	r20, r24
    153e:	59 0b       	sbc	r21, r25
    1540:	50 93 2b 01 	sts	0x012B, r21
    1544:	40 93 2a 01 	sts	0x012A, r20
    1548:	0b c0       	rjmp	.+22     	; 0x1560 <_Z7forwardv+0x48e>
        break;
      case 44:
        OCR5C=ICR5-vAl;
    154a:	20 91 26 01 	lds	r18, 0x0126
    154e:	30 91 27 01 	lds	r19, 0x0127
    1552:	f9 01       	movw	r30, r18
    1554:	e8 1b       	sub	r30, r24
    1556:	f9 0b       	sbc	r31, r25
    1558:	f0 93 2d 01 	sts	0x012D, r31
    155c:	e0 93 2c 01 	sts	0x012C, r30
     }
  }

  void write(int vAl)           //PIN=servo pin no. on mega,vAl=angle F_CPU for the servo at pin
  {
    vAl=constraint(mapAngle(vAl,0,200,iCr/39,iCr/8.3),iCr/40,iCr/8);
    1560:	a0 90 cb 02 	lds	r10, 0x02CB
    1564:	b0 90 cc 02 	lds	r11, 0x02CC
    1568:	c5 01       	movw	r24, r10
    156a:	67 e2       	ldi	r22, 0x27	; 39
    156c:	70 e0       	ldi	r23, 0x00	; 0
    156e:	0e 94 48 1a 	call	0x3490	; 0x3490 <__divmodhi4>
    1572:	6b 01       	movw	r12, r22
    1574:	ee 24       	eor	r14, r14
    1576:	d7 fc       	sbrc	r13, 7
    1578:	e0 94       	com	r14
    157a:	fe 2c       	mov	r15, r14
    157c:	b5 01       	movw	r22, r10
    157e:	88 27       	eor	r24, r24
    1580:	77 fd       	sbrc	r23, 7
    1582:	80 95       	com	r24
    1584:	98 2f       	mov	r25, r24
    1586:	0e 94 3a 19 	call	0x3274	; 0x3274 <__floatsisf>
    158a:	2d ec       	ldi	r18, 0xCD	; 205
    158c:	3c ec       	ldi	r19, 0xCC	; 204
    158e:	44 e0       	ldi	r20, 0x04	; 4
    1590:	51 e4       	ldi	r21, 0x41	; 65
    1592:	0e 94 9f 18 	call	0x313e	; 0x313e <__divsf3>
    1596:	0e 94 07 19 	call	0x320e	; 0x320e <__fixsfsi>
        break; 
    }   
  }
  long mapAngle(long x, long in_min, long in_max, long out_min, long out_max)
  {
    return (x - in_min) * (out_max - out_min) / (in_max - in_min) + out_min;
    159a:	6c 19       	sub	r22, r12
    159c:	7d 09       	sbc	r23, r13
    159e:	8e 09       	sbc	r24, r14
    15a0:	9f 09       	sbc	r25, r15
	swerve2.write(angle+correction[1]);
    15a2:	40 91 bc 02 	lds	r20, 0x02BC
    15a6:	50 91 bd 02 	lds	r21, 0x02BD
    15aa:	20 91 b6 02 	lds	r18, 0x02B6
    15ae:	30 91 b7 02 	lds	r19, 0x02B7
    15b2:	24 0f       	add	r18, r20
    15b4:	35 1f       	adc	r19, r21
     }
  }

  void write(int vAl)           //PIN=servo pin no. on mega,vAl=angle F_CPU for the servo at pin
  {
    vAl=constraint(mapAngle(vAl,0,200,iCr/39,iCr/8.3),iCr/40,iCr/8);
    15b6:	44 27       	eor	r20, r20
    15b8:	37 fd       	sbrc	r19, 7
    15ba:	40 95       	com	r20
    15bc:	54 2f       	mov	r21, r20
        break; 
    }   
  }
  long mapAngle(long x, long in_min, long in_max, long out_min, long out_max)
  {
    return (x - in_min) * (out_max - out_min) / (in_max - in_min) + out_min;
    15be:	0e 94 29 1a 	call	0x3452	; 0x3452 <__mulsi3>
    15c2:	28 ec       	ldi	r18, 0xC8	; 200
    15c4:	30 e0       	ldi	r19, 0x00	; 0
    15c6:	40 e0       	ldi	r20, 0x00	; 0
    15c8:	50 e0       	ldi	r21, 0x00	; 0
    15ca:	0e 94 5b 1a 	call	0x34b6	; 0x34b6 <__divmodsi4>
    15ce:	89 01       	movw	r16, r18
    15d0:	9a 01       	movw	r18, r20
    15d2:	0c 0d       	add	r16, r12
    15d4:	1d 1d       	adc	r17, r13
    15d6:	2e 1d       	adc	r18, r14
    15d8:	3f 1d       	adc	r19, r15
     }
  }

  void write(int vAl)           //PIN=servo pin no. on mega,vAl=angle F_CPU for the servo at pin
  {
    vAl=constraint(mapAngle(vAl,0,200,iCr/39,iCr/8.3),iCr/40,iCr/8);
    15da:	c5 01       	movw	r24, r10
    15dc:	bb 20       	and	r11, r11
    15de:	0c f4       	brge	.+2      	; 0x15e2 <_Z7forwardv+0x510>
    15e0:	07 96       	adiw	r24, 0x07	; 7
    15e2:	95 95       	asr	r25
    15e4:	87 95       	ror	r24
    15e6:	95 95       	asr	r25
    15e8:	87 95       	ror	r24
    15ea:	95 95       	asr	r25
    15ec:	87 95       	ror	r24
    15ee:	aa 27       	eor	r26, r26
    15f0:	97 fd       	sbrc	r25, 7
    15f2:	a0 95       	com	r26
    15f4:	ba 2f       	mov	r27, r26
  {
    return (x - in_min) * (out_max - out_min) / (in_max - in_min) + out_min;
  }
  long constraint(long nUm,long lOwer,long uPper)
  {
    if(nUm>uPper){
    15f6:	80 17       	cp	r24, r16
    15f8:	91 07       	cpc	r25, r17
    15fa:	a2 07       	cpc	r26, r18
    15fc:	b3 07       	cpc	r27, r19
    15fe:	a4 f0       	brlt	.+40     	; 0x1628 <_Z7forwardv+0x556>
     }
  }

  void write(int vAl)           //PIN=servo pin no. on mega,vAl=angle F_CPU for the servo at pin
  {
    vAl=constraint(mapAngle(vAl,0,200,iCr/39,iCr/8.3),iCr/40,iCr/8);
    1600:	c5 01       	movw	r24, r10
    1602:	68 e2       	ldi	r22, 0x28	; 40
    1604:	70 e0       	ldi	r23, 0x00	; 0
    1606:	0e 94 48 1a 	call	0x3490	; 0x3490 <__divmodhi4>
    160a:	cb 01       	movw	r24, r22
    160c:	ac 01       	movw	r20, r24
    160e:	66 27       	eor	r22, r22
    1610:	57 fd       	sbrc	r21, 7
    1612:	60 95       	com	r22
    1614:	76 2f       	mov	r23, r22
    1616:	d9 01       	movw	r26, r18
    1618:	c8 01       	movw	r24, r16
    161a:	04 17       	cp	r16, r20
    161c:	15 07       	cpc	r17, r21
    161e:	26 07       	cpc	r18, r22
    1620:	37 07       	cpc	r19, r23
    1622:	14 f4       	brge	.+4      	; 0x1628 <_Z7forwardv+0x556>
    1624:	db 01       	movw	r26, r22
    1626:	ca 01       	movw	r24, r20
    switch(pIn)
    1628:	20 91 cd 02 	lds	r18, 0x02CD
    162c:	28 30       	cpi	r18, 0x08	; 8
    162e:	09 f4       	brne	.+2      	; 0x1632 <_Z7forwardv+0x560>
    1630:	7a c0       	rjmp	.+244    	; 0x1726 <_Z7forwardv+0x654>
    1632:	29 30       	cpi	r18, 0x09	; 9
    1634:	90 f4       	brcc	.+36     	; 0x165a <_Z7forwardv+0x588>
    1636:	25 30       	cpi	r18, 0x05	; 5
    1638:	d1 f1       	breq	.+116    	; 0x16ae <_Z7forwardv+0x5dc>
    163a:	26 30       	cpi	r18, 0x06	; 6
    163c:	38 f4       	brcc	.+14     	; 0x164c <_Z7forwardv+0x57a>
    163e:	22 30       	cpi	r18, 0x02	; 2
    1640:	09 f4       	brne	.+2      	; 0x1644 <_Z7forwardv+0x572>
    1642:	41 c0       	rjmp	.+130    	; 0x16c6 <_Z7forwardv+0x5f4>
    1644:	23 30       	cpi	r18, 0x03	; 3
    1646:	09 f0       	breq	.+2      	; 0x164a <_Z7forwardv+0x578>
    1648:	9d c0       	rjmp	.+314    	; 0x1784 <_Z7forwardv+0x6b2>
    164a:	49 c0       	rjmp	.+146    	; 0x16de <_Z7forwardv+0x60c>
    164c:	26 30       	cpi	r18, 0x06	; 6
    164e:	09 f4       	brne	.+2      	; 0x1652 <_Z7forwardv+0x580>
    1650:	52 c0       	rjmp	.+164    	; 0x16f6 <_Z7forwardv+0x624>
    1652:	27 30       	cpi	r18, 0x07	; 7
    1654:	09 f0       	breq	.+2      	; 0x1658 <_Z7forwardv+0x586>
    1656:	96 c0       	rjmp	.+300    	; 0x1784 <_Z7forwardv+0x6b2>
    1658:	5a c0       	rjmp	.+180    	; 0x170e <_Z7forwardv+0x63c>
    165a:	2c 32       	cpi	r18, 0x2C	; 44
    165c:	09 f4       	brne	.+2      	; 0x1660 <_Z7forwardv+0x58e>
    165e:	87 c0       	rjmp	.+270    	; 0x176e <_Z7forwardv+0x69c>
    1660:	2d 32       	cpi	r18, 0x2D	; 45
    1662:	30 f4       	brcc	.+12     	; 0x1670 <_Z7forwardv+0x59e>
    1664:	2b 30       	cpi	r18, 0x0B	; 11
    1666:	59 f0       	breq	.+22     	; 0x167e <_Z7forwardv+0x5ac>
    1668:	2c 30       	cpi	r18, 0x0C	; 12
    166a:	09 f0       	breq	.+2      	; 0x166e <_Z7forwardv+0x59c>
    166c:	8b c0       	rjmp	.+278    	; 0x1784 <_Z7forwardv+0x6b2>
    166e:	13 c0       	rjmp	.+38     	; 0x1696 <_Z7forwardv+0x5c4>
    1670:	2d 32       	cpi	r18, 0x2D	; 45
    1672:	09 f4       	brne	.+2      	; 0x1676 <_Z7forwardv+0x5a4>
    1674:	70 c0       	rjmp	.+224    	; 0x1756 <_Z7forwardv+0x684>
    1676:	2e 32       	cpi	r18, 0x2E	; 46
    1678:	09 f0       	breq	.+2      	; 0x167c <_Z7forwardv+0x5aa>
    167a:	84 c0       	rjmp	.+264    	; 0x1784 <_Z7forwardv+0x6b2>
    167c:	60 c0       	rjmp	.+192    	; 0x173e <_Z7forwardv+0x66c>
    {
      case 11:
        OCR1A=ICR1-vAl;
    167e:	20 91 86 00 	lds	r18, 0x0086
    1682:	30 91 87 00 	lds	r19, 0x0087
    1686:	f9 01       	movw	r30, r18
    1688:	e8 1b       	sub	r30, r24
    168a:	f9 0b       	sbc	r31, r25
    168c:	f0 93 89 00 	sts	0x0089, r31
    1690:	e0 93 88 00 	sts	0x0088, r30
    1694:	77 c0       	rjmp	.+238    	; 0x1784 <_Z7forwardv+0x6b2>
        break;
      case 12:
        OCR1B=ICR1-vAl;
    1696:	20 91 86 00 	lds	r18, 0x0086
    169a:	30 91 87 00 	lds	r19, 0x0087
    169e:	a9 01       	movw	r20, r18
    16a0:	48 1b       	sub	r20, r24
    16a2:	59 0b       	sbc	r21, r25
    16a4:	50 93 8b 00 	sts	0x008B, r21
    16a8:	40 93 8a 00 	sts	0x008A, r20
    16ac:	6b c0       	rjmp	.+214    	; 0x1784 <_Z7forwardv+0x6b2>
        break;
      case 5:
        OCR3A=ICR3-vAl;
    16ae:	20 91 96 00 	lds	r18, 0x0096
    16b2:	30 91 97 00 	lds	r19, 0x0097
    16b6:	f9 01       	movw	r30, r18
    16b8:	e8 1b       	sub	r30, r24
    16ba:	f9 0b       	sbc	r31, r25
    16bc:	f0 93 99 00 	sts	0x0099, r31
    16c0:	e0 93 98 00 	sts	0x0098, r30
    16c4:	5f c0       	rjmp	.+190    	; 0x1784 <_Z7forwardv+0x6b2>
        break;
      case 2:
        OCR3B=ICR3-vAl;
    16c6:	20 91 96 00 	lds	r18, 0x0096
    16ca:	30 91 97 00 	lds	r19, 0x0097
    16ce:	a9 01       	movw	r20, r18
    16d0:	48 1b       	sub	r20, r24
    16d2:	59 0b       	sbc	r21, r25
    16d4:	50 93 9b 00 	sts	0x009B, r21
    16d8:	40 93 9a 00 	sts	0x009A, r20
    16dc:	53 c0       	rjmp	.+166    	; 0x1784 <_Z7forwardv+0x6b2>
        break;
      case 3:
        OCR3C=ICR3-vAl;
    16de:	20 91 96 00 	lds	r18, 0x0096
    16e2:	30 91 97 00 	lds	r19, 0x0097
    16e6:	f9 01       	movw	r30, r18
    16e8:	e8 1b       	sub	r30, r24
    16ea:	f9 0b       	sbc	r31, r25
    16ec:	f0 93 9d 00 	sts	0x009D, r31
    16f0:	e0 93 9c 00 	sts	0x009C, r30
    16f4:	47 c0       	rjmp	.+142    	; 0x1784 <_Z7forwardv+0x6b2>
        break;
      case 6:
        OCR4A=ICR4-vAl;
    16f6:	20 91 a6 00 	lds	r18, 0x00A6
    16fa:	30 91 a7 00 	lds	r19, 0x00A7
    16fe:	a9 01       	movw	r20, r18
    1700:	48 1b       	sub	r20, r24
    1702:	59 0b       	sbc	r21, r25
    1704:	50 93 a9 00 	sts	0x00A9, r21
    1708:	40 93 a8 00 	sts	0x00A8, r20
    170c:	3b c0       	rjmp	.+118    	; 0x1784 <_Z7forwardv+0x6b2>
        break;
      case 7:
        OCR4B=ICR4-vAl;
    170e:	20 91 a6 00 	lds	r18, 0x00A6
    1712:	30 91 a7 00 	lds	r19, 0x00A7
    1716:	f9 01       	movw	r30, r18
    1718:	e8 1b       	sub	r30, r24
    171a:	f9 0b       	sbc	r31, r25
    171c:	f0 93 ab 00 	sts	0x00AB, r31
    1720:	e0 93 aa 00 	sts	0x00AA, r30
    1724:	2f c0       	rjmp	.+94     	; 0x1784 <_Z7forwardv+0x6b2>
        break; 
      case 8:
        OCR4C=ICR4-vAl;
    1726:	20 91 a6 00 	lds	r18, 0x00A6
    172a:	30 91 a7 00 	lds	r19, 0x00A7
    172e:	a9 01       	movw	r20, r18
    1730:	48 1b       	sub	r20, r24
    1732:	59 0b       	sbc	r21, r25
    1734:	50 93 ad 00 	sts	0x00AD, r21
    1738:	40 93 ac 00 	sts	0x00AC, r20
    173c:	23 c0       	rjmp	.+70     	; 0x1784 <_Z7forwardv+0x6b2>
        break;
      case 46:
        OCR5A=ICR5-vAl;
    173e:	20 91 26 01 	lds	r18, 0x0126
    1742:	30 91 27 01 	lds	r19, 0x0127
    1746:	f9 01       	movw	r30, r18
    1748:	e8 1b       	sub	r30, r24
    174a:	f9 0b       	sbc	r31, r25
    174c:	f0 93 29 01 	sts	0x0129, r31
    1750:	e0 93 28 01 	sts	0x0128, r30
    1754:	17 c0       	rjmp	.+46     	; 0x1784 <_Z7forwardv+0x6b2>
        break;
      case 45:
        OCR5B=ICR5-vAl;
    1756:	20 91 26 01 	lds	r18, 0x0126
    175a:	30 91 27 01 	lds	r19, 0x0127
    175e:	a9 01       	movw	r20, r18
    1760:	48 1b       	sub	r20, r24
    1762:	59 0b       	sbc	r21, r25
    1764:	50 93 2b 01 	sts	0x012B, r21
    1768:	40 93 2a 01 	sts	0x012A, r20
    176c:	0b c0       	rjmp	.+22     	; 0x1784 <_Z7forwardv+0x6b2>
        break;
      case 44:
        OCR5C=ICR5-vAl;
    176e:	20 91 26 01 	lds	r18, 0x0126
    1772:	30 91 27 01 	lds	r19, 0x0127
    1776:	f9 01       	movw	r30, r18
    1778:	e8 1b       	sub	r30, r24
    177a:	f9 0b       	sbc	r31, r25
    177c:	f0 93 2d 01 	sts	0x012D, r31
    1780:	e0 93 2c 01 	sts	0x012C, r30
     }
  }

  void write(int vAl)           //PIN=servo pin no. on mega,vAl=angle F_CPU for the servo at pin
  {
    vAl=constraint(mapAngle(vAl,0,200,iCr/39,iCr/8.3),iCr/40,iCr/8);
    1784:	a0 90 ce 02 	lds	r10, 0x02CE
    1788:	b0 90 cf 02 	lds	r11, 0x02CF
    178c:	c5 01       	movw	r24, r10
    178e:	67 e2       	ldi	r22, 0x27	; 39
    1790:	70 e0       	ldi	r23, 0x00	; 0
    1792:	0e 94 48 1a 	call	0x3490	; 0x3490 <__divmodhi4>
    1796:	6b 01       	movw	r12, r22
    1798:	ee 24       	eor	r14, r14
    179a:	d7 fc       	sbrc	r13, 7
    179c:	e0 94       	com	r14
    179e:	fe 2c       	mov	r15, r14
    17a0:	b5 01       	movw	r22, r10
    17a2:	88 27       	eor	r24, r24
    17a4:	77 fd       	sbrc	r23, 7
    17a6:	80 95       	com	r24
    17a8:	98 2f       	mov	r25, r24
    17aa:	0e 94 3a 19 	call	0x3274	; 0x3274 <__floatsisf>
    17ae:	2d ec       	ldi	r18, 0xCD	; 205
    17b0:	3c ec       	ldi	r19, 0xCC	; 204
    17b2:	44 e0       	ldi	r20, 0x04	; 4
    17b4:	51 e4       	ldi	r21, 0x41	; 65
    17b6:	0e 94 9f 18 	call	0x313e	; 0x313e <__divsf3>
    17ba:	0e 94 07 19 	call	0x320e	; 0x320e <__fixsfsi>
        break; 
    }   
  }
  long mapAngle(long x, long in_min, long in_max, long out_min, long out_max)
  {
    return (x - in_min) * (out_max - out_min) / (in_max - in_min) + out_min;
    17be:	6c 19       	sub	r22, r12
    17c0:	7d 09       	sbc	r23, r13
    17c2:	8e 09       	sbc	r24, r14
    17c4:	9f 09       	sbc	r25, r15
	swerve3.write(angle+correction[2]);
    17c6:	40 91 bc 02 	lds	r20, 0x02BC
    17ca:	50 91 bd 02 	lds	r21, 0x02BD
    17ce:	20 91 b8 02 	lds	r18, 0x02B8
    17d2:	30 91 b9 02 	lds	r19, 0x02B9
    17d6:	24 0f       	add	r18, r20
    17d8:	35 1f       	adc	r19, r21
     }
  }

  void write(int vAl)           //PIN=servo pin no. on mega,vAl=angle F_CPU for the servo at pin
  {
    vAl=constraint(mapAngle(vAl,0,200,iCr/39,iCr/8.3),iCr/40,iCr/8);
    17da:	44 27       	eor	r20, r20
    17dc:	37 fd       	sbrc	r19, 7
    17de:	40 95       	com	r20
    17e0:	54 2f       	mov	r21, r20
        break; 
    }   
  }
  long mapAngle(long x, long in_min, long in_max, long out_min, long out_max)
  {
    return (x - in_min) * (out_max - out_min) / (in_max - in_min) + out_min;
    17e2:	0e 94 29 1a 	call	0x3452	; 0x3452 <__mulsi3>
    17e6:	28 ec       	ldi	r18, 0xC8	; 200
    17e8:	30 e0       	ldi	r19, 0x00	; 0
    17ea:	40 e0       	ldi	r20, 0x00	; 0
    17ec:	50 e0       	ldi	r21, 0x00	; 0
    17ee:	0e 94 5b 1a 	call	0x34b6	; 0x34b6 <__divmodsi4>
    17f2:	89 01       	movw	r16, r18
    17f4:	9a 01       	movw	r18, r20
    17f6:	0c 0d       	add	r16, r12
    17f8:	1d 1d       	adc	r17, r13
    17fa:	2e 1d       	adc	r18, r14
    17fc:	3f 1d       	adc	r19, r15
     }
  }

  void write(int vAl)           //PIN=servo pin no. on mega,vAl=angle F_CPU for the servo at pin
  {
    vAl=constraint(mapAngle(vAl,0,200,iCr/39,iCr/8.3),iCr/40,iCr/8);
    17fe:	c5 01       	movw	r24, r10
    1800:	bb 20       	and	r11, r11
    1802:	0c f4       	brge	.+2      	; 0x1806 <_Z7forwardv+0x734>
    1804:	07 96       	adiw	r24, 0x07	; 7
    1806:	95 95       	asr	r25
    1808:	87 95       	ror	r24
    180a:	95 95       	asr	r25
    180c:	87 95       	ror	r24
    180e:	95 95       	asr	r25
    1810:	87 95       	ror	r24
    1812:	aa 27       	eor	r26, r26
    1814:	97 fd       	sbrc	r25, 7
    1816:	a0 95       	com	r26
    1818:	ba 2f       	mov	r27, r26
  {
    return (x - in_min) * (out_max - out_min) / (in_max - in_min) + out_min;
  }
  long constraint(long nUm,long lOwer,long uPper)
  {
    if(nUm>uPper){
    181a:	80 17       	cp	r24, r16
    181c:	91 07       	cpc	r25, r17
    181e:	a2 07       	cpc	r26, r18
    1820:	b3 07       	cpc	r27, r19
    1822:	a4 f0       	brlt	.+40     	; 0x184c <_Z7forwardv+0x77a>
     }
  }

  void write(int vAl)           //PIN=servo pin no. on mega,vAl=angle F_CPU for the servo at pin
  {
    vAl=constraint(mapAngle(vAl,0,200,iCr/39,iCr/8.3),iCr/40,iCr/8);
    1824:	c5 01       	movw	r24, r10
    1826:	68 e2       	ldi	r22, 0x28	; 40
    1828:	70 e0       	ldi	r23, 0x00	; 0
    182a:	0e 94 48 1a 	call	0x3490	; 0x3490 <__divmodhi4>
    182e:	cb 01       	movw	r24, r22
    1830:	ac 01       	movw	r20, r24
    1832:	66 27       	eor	r22, r22
    1834:	57 fd       	sbrc	r21, 7
    1836:	60 95       	com	r22
    1838:	76 2f       	mov	r23, r22
    183a:	d9 01       	movw	r26, r18
    183c:	c8 01       	movw	r24, r16
    183e:	04 17       	cp	r16, r20
    1840:	15 07       	cpc	r17, r21
    1842:	26 07       	cpc	r18, r22
    1844:	37 07       	cpc	r19, r23
    1846:	14 f4       	brge	.+4      	; 0x184c <_Z7forwardv+0x77a>
    1848:	db 01       	movw	r26, r22
    184a:	ca 01       	movw	r24, r20
    switch(pIn)
    184c:	20 91 d0 02 	lds	r18, 0x02D0
    1850:	28 30       	cpi	r18, 0x08	; 8
    1852:	09 f4       	brne	.+2      	; 0x1856 <_Z7forwardv+0x784>
    1854:	7a c0       	rjmp	.+244    	; 0x194a <_Z7forwardv+0x878>
    1856:	29 30       	cpi	r18, 0x09	; 9
    1858:	90 f4       	brcc	.+36     	; 0x187e <_Z7forwardv+0x7ac>
    185a:	25 30       	cpi	r18, 0x05	; 5
    185c:	d1 f1       	breq	.+116    	; 0x18d2 <_Z7forwardv+0x800>
    185e:	26 30       	cpi	r18, 0x06	; 6
    1860:	38 f4       	brcc	.+14     	; 0x1870 <_Z7forwardv+0x79e>
    1862:	22 30       	cpi	r18, 0x02	; 2
    1864:	09 f4       	brne	.+2      	; 0x1868 <_Z7forwardv+0x796>
    1866:	41 c0       	rjmp	.+130    	; 0x18ea <_Z7forwardv+0x818>
    1868:	23 30       	cpi	r18, 0x03	; 3
    186a:	09 f0       	breq	.+2      	; 0x186e <_Z7forwardv+0x79c>
    186c:	9d c0       	rjmp	.+314    	; 0x19a8 <_Z7forwardv+0x8d6>
    186e:	49 c0       	rjmp	.+146    	; 0x1902 <_Z7forwardv+0x830>
    1870:	26 30       	cpi	r18, 0x06	; 6
    1872:	09 f4       	brne	.+2      	; 0x1876 <_Z7forwardv+0x7a4>
    1874:	52 c0       	rjmp	.+164    	; 0x191a <_Z7forwardv+0x848>
    1876:	27 30       	cpi	r18, 0x07	; 7
    1878:	09 f0       	breq	.+2      	; 0x187c <_Z7forwardv+0x7aa>
    187a:	96 c0       	rjmp	.+300    	; 0x19a8 <_Z7forwardv+0x8d6>
    187c:	5a c0       	rjmp	.+180    	; 0x1932 <_Z7forwardv+0x860>
    187e:	2c 32       	cpi	r18, 0x2C	; 44
    1880:	09 f4       	brne	.+2      	; 0x1884 <_Z7forwardv+0x7b2>
    1882:	87 c0       	rjmp	.+270    	; 0x1992 <_Z7forwardv+0x8c0>
    1884:	2d 32       	cpi	r18, 0x2D	; 45
    1886:	30 f4       	brcc	.+12     	; 0x1894 <_Z7forwardv+0x7c2>
    1888:	2b 30       	cpi	r18, 0x0B	; 11
    188a:	59 f0       	breq	.+22     	; 0x18a2 <_Z7forwardv+0x7d0>
    188c:	2c 30       	cpi	r18, 0x0C	; 12
    188e:	09 f0       	breq	.+2      	; 0x1892 <_Z7forwardv+0x7c0>
    1890:	8b c0       	rjmp	.+278    	; 0x19a8 <_Z7forwardv+0x8d6>
    1892:	13 c0       	rjmp	.+38     	; 0x18ba <_Z7forwardv+0x7e8>
    1894:	2d 32       	cpi	r18, 0x2D	; 45
    1896:	09 f4       	brne	.+2      	; 0x189a <_Z7forwardv+0x7c8>
    1898:	70 c0       	rjmp	.+224    	; 0x197a <_Z7forwardv+0x8a8>
    189a:	2e 32       	cpi	r18, 0x2E	; 46
    189c:	09 f0       	breq	.+2      	; 0x18a0 <_Z7forwardv+0x7ce>
    189e:	84 c0       	rjmp	.+264    	; 0x19a8 <_Z7forwardv+0x8d6>
    18a0:	60 c0       	rjmp	.+192    	; 0x1962 <_Z7forwardv+0x890>
    {
      case 11:
        OCR1A=ICR1-vAl;
    18a2:	20 91 86 00 	lds	r18, 0x0086
    18a6:	30 91 87 00 	lds	r19, 0x0087
    18aa:	f9 01       	movw	r30, r18
    18ac:	e8 1b       	sub	r30, r24
    18ae:	f9 0b       	sbc	r31, r25
    18b0:	f0 93 89 00 	sts	0x0089, r31
    18b4:	e0 93 88 00 	sts	0x0088, r30
    18b8:	77 c0       	rjmp	.+238    	; 0x19a8 <_Z7forwardv+0x8d6>
        break;
      case 12:
        OCR1B=ICR1-vAl;
    18ba:	20 91 86 00 	lds	r18, 0x0086
    18be:	30 91 87 00 	lds	r19, 0x0087
    18c2:	a9 01       	movw	r20, r18
    18c4:	48 1b       	sub	r20, r24
    18c6:	59 0b       	sbc	r21, r25
    18c8:	50 93 8b 00 	sts	0x008B, r21
    18cc:	40 93 8a 00 	sts	0x008A, r20
    18d0:	6b c0       	rjmp	.+214    	; 0x19a8 <_Z7forwardv+0x8d6>
        break;
      case 5:
        OCR3A=ICR3-vAl;
    18d2:	20 91 96 00 	lds	r18, 0x0096
    18d6:	30 91 97 00 	lds	r19, 0x0097
    18da:	f9 01       	movw	r30, r18
    18dc:	e8 1b       	sub	r30, r24
    18de:	f9 0b       	sbc	r31, r25
    18e0:	f0 93 99 00 	sts	0x0099, r31
    18e4:	e0 93 98 00 	sts	0x0098, r30
    18e8:	5f c0       	rjmp	.+190    	; 0x19a8 <_Z7forwardv+0x8d6>
        break;
      case 2:
        OCR3B=ICR3-vAl;
    18ea:	20 91 96 00 	lds	r18, 0x0096
    18ee:	30 91 97 00 	lds	r19, 0x0097
    18f2:	a9 01       	movw	r20, r18
    18f4:	48 1b       	sub	r20, r24
    18f6:	59 0b       	sbc	r21, r25
    18f8:	50 93 9b 00 	sts	0x009B, r21
    18fc:	40 93 9a 00 	sts	0x009A, r20
    1900:	53 c0       	rjmp	.+166    	; 0x19a8 <_Z7forwardv+0x8d6>
        break;
      case 3:
        OCR3C=ICR3-vAl;
    1902:	20 91 96 00 	lds	r18, 0x0096
    1906:	30 91 97 00 	lds	r19, 0x0097
    190a:	f9 01       	movw	r30, r18
    190c:	e8 1b       	sub	r30, r24
    190e:	f9 0b       	sbc	r31, r25
    1910:	f0 93 9d 00 	sts	0x009D, r31
    1914:	e0 93 9c 00 	sts	0x009C, r30
    1918:	47 c0       	rjmp	.+142    	; 0x19a8 <_Z7forwardv+0x8d6>
        break;
      case 6:
        OCR4A=ICR4-vAl;
    191a:	20 91 a6 00 	lds	r18, 0x00A6
    191e:	30 91 a7 00 	lds	r19, 0x00A7
    1922:	a9 01       	movw	r20, r18
    1924:	48 1b       	sub	r20, r24
    1926:	59 0b       	sbc	r21, r25
    1928:	50 93 a9 00 	sts	0x00A9, r21
    192c:	40 93 a8 00 	sts	0x00A8, r20
    1930:	3b c0       	rjmp	.+118    	; 0x19a8 <_Z7forwardv+0x8d6>
        break;
      case 7:
        OCR4B=ICR4-vAl;
    1932:	20 91 a6 00 	lds	r18, 0x00A6
    1936:	30 91 a7 00 	lds	r19, 0x00A7
    193a:	f9 01       	movw	r30, r18
    193c:	e8 1b       	sub	r30, r24
    193e:	f9 0b       	sbc	r31, r25
    1940:	f0 93 ab 00 	sts	0x00AB, r31
    1944:	e0 93 aa 00 	sts	0x00AA, r30
    1948:	2f c0       	rjmp	.+94     	; 0x19a8 <_Z7forwardv+0x8d6>
        break; 
      case 8:
        OCR4C=ICR4-vAl;
    194a:	20 91 a6 00 	lds	r18, 0x00A6
    194e:	30 91 a7 00 	lds	r19, 0x00A7
    1952:	a9 01       	movw	r20, r18
    1954:	48 1b       	sub	r20, r24
    1956:	59 0b       	sbc	r21, r25
    1958:	50 93 ad 00 	sts	0x00AD, r21
    195c:	40 93 ac 00 	sts	0x00AC, r20
    1960:	23 c0       	rjmp	.+70     	; 0x19a8 <_Z7forwardv+0x8d6>
        break;
      case 46:
        OCR5A=ICR5-vAl;
    1962:	20 91 26 01 	lds	r18, 0x0126
    1966:	30 91 27 01 	lds	r19, 0x0127
    196a:	f9 01       	movw	r30, r18
    196c:	e8 1b       	sub	r30, r24
    196e:	f9 0b       	sbc	r31, r25
    1970:	f0 93 29 01 	sts	0x0129, r31
    1974:	e0 93 28 01 	sts	0x0128, r30
    1978:	17 c0       	rjmp	.+46     	; 0x19a8 <_Z7forwardv+0x8d6>
        break;
      case 45:
        OCR5B=ICR5-vAl;
    197a:	20 91 26 01 	lds	r18, 0x0126
    197e:	30 91 27 01 	lds	r19, 0x0127
    1982:	a9 01       	movw	r20, r18
    1984:	48 1b       	sub	r20, r24
    1986:	59 0b       	sbc	r21, r25
    1988:	50 93 2b 01 	sts	0x012B, r21
    198c:	40 93 2a 01 	sts	0x012A, r20
    1990:	0b c0       	rjmp	.+22     	; 0x19a8 <_Z7forwardv+0x8d6>
        break;
      case 44:
        OCR5C=ICR5-vAl;
    1992:	20 91 26 01 	lds	r18, 0x0126
    1996:	30 91 27 01 	lds	r19, 0x0127
    199a:	f9 01       	movw	r30, r18
    199c:	e8 1b       	sub	r30, r24
    199e:	f9 0b       	sbc	r31, r25
    19a0:	f0 93 2d 01 	sts	0x012D, r31
    19a4:	e0 93 2c 01 	sts	0x012C, r30
     }
  }

  void write(int vAl)           //PIN=servo pin no. on mega,vAl=angle F_CPU for the servo at pin
  {
    vAl=constraint(mapAngle(vAl,0,200,iCr/39,iCr/8.3),iCr/40,iCr/8);
    19a8:	a0 90 d1 02 	lds	r10, 0x02D1
    19ac:	b0 90 d2 02 	lds	r11, 0x02D2
    19b0:	c5 01       	movw	r24, r10
    19b2:	67 e2       	ldi	r22, 0x27	; 39
    19b4:	70 e0       	ldi	r23, 0x00	; 0
    19b6:	0e 94 48 1a 	call	0x3490	; 0x3490 <__divmodhi4>
    19ba:	6b 01       	movw	r12, r22
    19bc:	ee 24       	eor	r14, r14
    19be:	d7 fc       	sbrc	r13, 7
    19c0:	e0 94       	com	r14
    19c2:	fe 2c       	mov	r15, r14
    19c4:	b5 01       	movw	r22, r10
    19c6:	88 27       	eor	r24, r24
    19c8:	77 fd       	sbrc	r23, 7
    19ca:	80 95       	com	r24
    19cc:	98 2f       	mov	r25, r24
    19ce:	0e 94 3a 19 	call	0x3274	; 0x3274 <__floatsisf>
    19d2:	2d ec       	ldi	r18, 0xCD	; 205
    19d4:	3c ec       	ldi	r19, 0xCC	; 204
    19d6:	44 e0       	ldi	r20, 0x04	; 4
    19d8:	51 e4       	ldi	r21, 0x41	; 65
    19da:	0e 94 9f 18 	call	0x313e	; 0x313e <__divsf3>
    19de:	0e 94 07 19 	call	0x320e	; 0x320e <__fixsfsi>
        break; 
    }   
  }
  long mapAngle(long x, long in_min, long in_max, long out_min, long out_max)
  {
    return (x - in_min) * (out_max - out_min) / (in_max - in_min) + out_min;
    19e2:	6c 19       	sub	r22, r12
    19e4:	7d 09       	sbc	r23, r13
    19e6:	8e 09       	sbc	r24, r14
    19e8:	9f 09       	sbc	r25, r15
	swerve4.write(angle+correction[3]);
    19ea:	40 91 bc 02 	lds	r20, 0x02BC
    19ee:	50 91 bd 02 	lds	r21, 0x02BD
    19f2:	20 91 ba 02 	lds	r18, 0x02BA
    19f6:	30 91 bb 02 	lds	r19, 0x02BB
    19fa:	24 0f       	add	r18, r20
    19fc:	35 1f       	adc	r19, r21
     }
  }

  void write(int vAl)           //PIN=servo pin no. on mega,vAl=angle F_CPU for the servo at pin
  {
    vAl=constraint(mapAngle(vAl,0,200,iCr/39,iCr/8.3),iCr/40,iCr/8);
    19fe:	44 27       	eor	r20, r20
    1a00:	37 fd       	sbrc	r19, 7
    1a02:	40 95       	com	r20
    1a04:	54 2f       	mov	r21, r20
        break; 
    }   
  }
  long mapAngle(long x, long in_min, long in_max, long out_min, long out_max)
  {
    return (x - in_min) * (out_max - out_min) / (in_max - in_min) + out_min;
    1a06:	0e 94 29 1a 	call	0x3452	; 0x3452 <__mulsi3>
    1a0a:	28 ec       	ldi	r18, 0xC8	; 200
    1a0c:	30 e0       	ldi	r19, 0x00	; 0
    1a0e:	40 e0       	ldi	r20, 0x00	; 0
    1a10:	50 e0       	ldi	r21, 0x00	; 0
    1a12:	0e 94 5b 1a 	call	0x34b6	; 0x34b6 <__divmodsi4>
    1a16:	89 01       	movw	r16, r18
    1a18:	9a 01       	movw	r18, r20
    1a1a:	0c 0d       	add	r16, r12
    1a1c:	1d 1d       	adc	r17, r13
    1a1e:	2e 1d       	adc	r18, r14
    1a20:	3f 1d       	adc	r19, r15
     }
  }

  void write(int vAl)           //PIN=servo pin no. on mega,vAl=angle F_CPU for the servo at pin
  {
    vAl=constraint(mapAngle(vAl,0,200,iCr/39,iCr/8.3),iCr/40,iCr/8);
    1a22:	c5 01       	movw	r24, r10
    1a24:	bb 20       	and	r11, r11
    1a26:	0c f4       	brge	.+2      	; 0x1a2a <_Z7forwardv+0x958>
    1a28:	07 96       	adiw	r24, 0x07	; 7
    1a2a:	95 95       	asr	r25
    1a2c:	87 95       	ror	r24
    1a2e:	95 95       	asr	r25
    1a30:	87 95       	ror	r24
    1a32:	95 95       	asr	r25
    1a34:	87 95       	ror	r24
    1a36:	aa 27       	eor	r26, r26
    1a38:	97 fd       	sbrc	r25, 7
    1a3a:	a0 95       	com	r26
    1a3c:	ba 2f       	mov	r27, r26
  {
    return (x - in_min) * (out_max - out_min) / (in_max - in_min) + out_min;
  }
  long constraint(long nUm,long lOwer,long uPper)
  {
    if(nUm>uPper){
    1a3e:	80 17       	cp	r24, r16
    1a40:	91 07       	cpc	r25, r17
    1a42:	a2 07       	cpc	r26, r18
    1a44:	b3 07       	cpc	r27, r19
    1a46:	a4 f0       	brlt	.+40     	; 0x1a70 <_Z7forwardv+0x99e>
     }
  }

  void write(int vAl)           //PIN=servo pin no. on mega,vAl=angle F_CPU for the servo at pin
  {
    vAl=constraint(mapAngle(vAl,0,200,iCr/39,iCr/8.3),iCr/40,iCr/8);
    1a48:	c5 01       	movw	r24, r10
    1a4a:	68 e2       	ldi	r22, 0x28	; 40
    1a4c:	70 e0       	ldi	r23, 0x00	; 0
    1a4e:	0e 94 48 1a 	call	0x3490	; 0x3490 <__divmodhi4>
    1a52:	cb 01       	movw	r24, r22
    1a54:	ac 01       	movw	r20, r24
    1a56:	66 27       	eor	r22, r22
    1a58:	57 fd       	sbrc	r21, 7
    1a5a:	60 95       	com	r22
    1a5c:	76 2f       	mov	r23, r22
    1a5e:	d9 01       	movw	r26, r18
    1a60:	c8 01       	movw	r24, r16
    1a62:	04 17       	cp	r16, r20
    1a64:	15 07       	cpc	r17, r21
    1a66:	26 07       	cpc	r18, r22
    1a68:	37 07       	cpc	r19, r23
    1a6a:	14 f4       	brge	.+4      	; 0x1a70 <_Z7forwardv+0x99e>
    1a6c:	db 01       	movw	r26, r22
    1a6e:	ca 01       	movw	r24, r20
    switch(pIn)
    1a70:	20 91 d3 02 	lds	r18, 0x02D3
    1a74:	28 30       	cpi	r18, 0x08	; 8
    1a76:	09 f4       	brne	.+2      	; 0x1a7a <_Z7forwardv+0x9a8>
    1a78:	7a c0       	rjmp	.+244    	; 0x1b6e <_Z7forwardv+0xa9c>
    1a7a:	29 30       	cpi	r18, 0x09	; 9
    1a7c:	90 f4       	brcc	.+36     	; 0x1aa2 <_Z7forwardv+0x9d0>
    1a7e:	25 30       	cpi	r18, 0x05	; 5
    1a80:	d1 f1       	breq	.+116    	; 0x1af6 <_Z7forwardv+0xa24>
    1a82:	26 30       	cpi	r18, 0x06	; 6
    1a84:	38 f4       	brcc	.+14     	; 0x1a94 <_Z7forwardv+0x9c2>
    1a86:	22 30       	cpi	r18, 0x02	; 2
    1a88:	09 f4       	brne	.+2      	; 0x1a8c <_Z7forwardv+0x9ba>
    1a8a:	41 c0       	rjmp	.+130    	; 0x1b0e <_Z7forwardv+0xa3c>
    1a8c:	23 30       	cpi	r18, 0x03	; 3
    1a8e:	09 f0       	breq	.+2      	; 0x1a92 <_Z7forwardv+0x9c0>
    1a90:	9d c0       	rjmp	.+314    	; 0x1bcc <_Z7forwardv+0xafa>
    1a92:	49 c0       	rjmp	.+146    	; 0x1b26 <_Z7forwardv+0xa54>
    1a94:	26 30       	cpi	r18, 0x06	; 6
    1a96:	09 f4       	brne	.+2      	; 0x1a9a <_Z7forwardv+0x9c8>
    1a98:	52 c0       	rjmp	.+164    	; 0x1b3e <_Z7forwardv+0xa6c>
    1a9a:	27 30       	cpi	r18, 0x07	; 7
    1a9c:	09 f0       	breq	.+2      	; 0x1aa0 <_Z7forwardv+0x9ce>
    1a9e:	96 c0       	rjmp	.+300    	; 0x1bcc <_Z7forwardv+0xafa>
    1aa0:	5a c0       	rjmp	.+180    	; 0x1b56 <_Z7forwardv+0xa84>
    1aa2:	2c 32       	cpi	r18, 0x2C	; 44
    1aa4:	09 f4       	brne	.+2      	; 0x1aa8 <_Z7forwardv+0x9d6>
    1aa6:	87 c0       	rjmp	.+270    	; 0x1bb6 <_Z7forwardv+0xae4>
    1aa8:	2d 32       	cpi	r18, 0x2D	; 45
    1aaa:	30 f4       	brcc	.+12     	; 0x1ab8 <_Z7forwardv+0x9e6>
    1aac:	2b 30       	cpi	r18, 0x0B	; 11
    1aae:	59 f0       	breq	.+22     	; 0x1ac6 <_Z7forwardv+0x9f4>
    1ab0:	2c 30       	cpi	r18, 0x0C	; 12
    1ab2:	09 f0       	breq	.+2      	; 0x1ab6 <_Z7forwardv+0x9e4>
    1ab4:	8b c0       	rjmp	.+278    	; 0x1bcc <_Z7forwardv+0xafa>
    1ab6:	13 c0       	rjmp	.+38     	; 0x1ade <_Z7forwardv+0xa0c>
    1ab8:	2d 32       	cpi	r18, 0x2D	; 45
    1aba:	09 f4       	brne	.+2      	; 0x1abe <_Z7forwardv+0x9ec>
    1abc:	70 c0       	rjmp	.+224    	; 0x1b9e <_Z7forwardv+0xacc>
    1abe:	2e 32       	cpi	r18, 0x2E	; 46
    1ac0:	09 f0       	breq	.+2      	; 0x1ac4 <_Z7forwardv+0x9f2>
    1ac2:	84 c0       	rjmp	.+264    	; 0x1bcc <_Z7forwardv+0xafa>
    1ac4:	60 c0       	rjmp	.+192    	; 0x1b86 <_Z7forwardv+0xab4>
    {
      case 11:
        OCR1A=ICR1-vAl;
    1ac6:	20 91 86 00 	lds	r18, 0x0086
    1aca:	30 91 87 00 	lds	r19, 0x0087
    1ace:	f9 01       	movw	r30, r18
    1ad0:	e8 1b       	sub	r30, r24
    1ad2:	f9 0b       	sbc	r31, r25
    1ad4:	f0 93 89 00 	sts	0x0089, r31
    1ad8:	e0 93 88 00 	sts	0x0088, r30
    1adc:	77 c0       	rjmp	.+238    	; 0x1bcc <_Z7forwardv+0xafa>
        break;
      case 12:
        OCR1B=ICR1-vAl;
    1ade:	20 91 86 00 	lds	r18, 0x0086
    1ae2:	30 91 87 00 	lds	r19, 0x0087
    1ae6:	a9 01       	movw	r20, r18
    1ae8:	48 1b       	sub	r20, r24
    1aea:	59 0b       	sbc	r21, r25
    1aec:	50 93 8b 00 	sts	0x008B, r21
    1af0:	40 93 8a 00 	sts	0x008A, r20
    1af4:	6b c0       	rjmp	.+214    	; 0x1bcc <_Z7forwardv+0xafa>
        break;
      case 5:
        OCR3A=ICR3-vAl;
    1af6:	20 91 96 00 	lds	r18, 0x0096
    1afa:	30 91 97 00 	lds	r19, 0x0097
    1afe:	f9 01       	movw	r30, r18
    1b00:	e8 1b       	sub	r30, r24
    1b02:	f9 0b       	sbc	r31, r25
    1b04:	f0 93 99 00 	sts	0x0099, r31
    1b08:	e0 93 98 00 	sts	0x0098, r30
    1b0c:	5f c0       	rjmp	.+190    	; 0x1bcc <_Z7forwardv+0xafa>
        break;
      case 2:
        OCR3B=ICR3-vAl;
    1b0e:	20 91 96 00 	lds	r18, 0x0096
    1b12:	30 91 97 00 	lds	r19, 0x0097
    1b16:	a9 01       	movw	r20, r18
    1b18:	48 1b       	sub	r20, r24
    1b1a:	59 0b       	sbc	r21, r25
    1b1c:	50 93 9b 00 	sts	0x009B, r21
    1b20:	40 93 9a 00 	sts	0x009A, r20
    1b24:	53 c0       	rjmp	.+166    	; 0x1bcc <_Z7forwardv+0xafa>
        break;
      case 3:
        OCR3C=ICR3-vAl;
    1b26:	20 91 96 00 	lds	r18, 0x0096
    1b2a:	30 91 97 00 	lds	r19, 0x0097
    1b2e:	f9 01       	movw	r30, r18
    1b30:	e8 1b       	sub	r30, r24
    1b32:	f9 0b       	sbc	r31, r25
    1b34:	f0 93 9d 00 	sts	0x009D, r31
    1b38:	e0 93 9c 00 	sts	0x009C, r30
    1b3c:	47 c0       	rjmp	.+142    	; 0x1bcc <_Z7forwardv+0xafa>
        break;
      case 6:
        OCR4A=ICR4-vAl;
    1b3e:	20 91 a6 00 	lds	r18, 0x00A6
    1b42:	30 91 a7 00 	lds	r19, 0x00A7
    1b46:	a9 01       	movw	r20, r18
    1b48:	48 1b       	sub	r20, r24
    1b4a:	59 0b       	sbc	r21, r25
    1b4c:	50 93 a9 00 	sts	0x00A9, r21
    1b50:	40 93 a8 00 	sts	0x00A8, r20
    1b54:	3b c0       	rjmp	.+118    	; 0x1bcc <_Z7forwardv+0xafa>
        break;
      case 7:
        OCR4B=ICR4-vAl;
    1b56:	20 91 a6 00 	lds	r18, 0x00A6
    1b5a:	30 91 a7 00 	lds	r19, 0x00A7
    1b5e:	f9 01       	movw	r30, r18
    1b60:	e8 1b       	sub	r30, r24
    1b62:	f9 0b       	sbc	r31, r25
    1b64:	f0 93 ab 00 	sts	0x00AB, r31
    1b68:	e0 93 aa 00 	sts	0x00AA, r30
    1b6c:	2f c0       	rjmp	.+94     	; 0x1bcc <_Z7forwardv+0xafa>
        break; 
      case 8:
        OCR4C=ICR4-vAl;
    1b6e:	20 91 a6 00 	lds	r18, 0x00A6
    1b72:	30 91 a7 00 	lds	r19, 0x00A7
    1b76:	a9 01       	movw	r20, r18
    1b78:	48 1b       	sub	r20, r24
    1b7a:	59 0b       	sbc	r21, r25
    1b7c:	50 93 ad 00 	sts	0x00AD, r21
    1b80:	40 93 ac 00 	sts	0x00AC, r20
    1b84:	23 c0       	rjmp	.+70     	; 0x1bcc <_Z7forwardv+0xafa>
        break;
      case 46:
        OCR5A=ICR5-vAl;
    1b86:	20 91 26 01 	lds	r18, 0x0126
    1b8a:	30 91 27 01 	lds	r19, 0x0127
    1b8e:	f9 01       	movw	r30, r18
    1b90:	e8 1b       	sub	r30, r24
    1b92:	f9 0b       	sbc	r31, r25
    1b94:	f0 93 29 01 	sts	0x0129, r31
    1b98:	e0 93 28 01 	sts	0x0128, r30
    1b9c:	17 c0       	rjmp	.+46     	; 0x1bcc <_Z7forwardv+0xafa>
        break;
      case 45:
        OCR5B=ICR5-vAl;
    1b9e:	20 91 26 01 	lds	r18, 0x0126
    1ba2:	30 91 27 01 	lds	r19, 0x0127
    1ba6:	a9 01       	movw	r20, r18
    1ba8:	48 1b       	sub	r20, r24
    1baa:	59 0b       	sbc	r21, r25
    1bac:	50 93 2b 01 	sts	0x012B, r21
    1bb0:	40 93 2a 01 	sts	0x012A, r20
    1bb4:	0b c0       	rjmp	.+22     	; 0x1bcc <_Z7forwardv+0xafa>
        break;
      case 44:
        OCR5C=ICR5-vAl;
    1bb6:	20 91 26 01 	lds	r18, 0x0126
    1bba:	30 91 27 01 	lds	r19, 0x0127
    1bbe:	f9 01       	movw	r30, r18
    1bc0:	e8 1b       	sub	r30, r24
    1bc2:	f9 0b       	sbc	r31, r25
    1bc4:	f0 93 2d 01 	sts	0x012D, r31
    1bc8:	e0 93 2c 01 	sts	0x012C, r30
		digitalWrite(dIrpin1,dIrection1);
		digitalWrite(dIrpin2,dIrection2);
	}

	void direction(uint8_t dIrection, uint8_t dIrection1, uint8_t dIrection2, uint8_t dIrection3){
		pinMode(dIrpin,OUTPUT);     //sets direction pin as output
    1bcc:	80 91 d5 02 	lds	r24, 0x02D5
    1bd0:	61 e0       	ldi	r22, 0x01	; 1
    1bd2:	0e 94 a6 00 	call	0x14c	; 0x14c <_Z7pinModehh>
	    pinMode(dIrpin1,OUTPUT);
    1bd6:	80 91 da 02 	lds	r24, 0x02DA
    1bda:	61 e0       	ldi	r22, 0x01	; 1
    1bdc:	0e 94 a6 00 	call	0x14c	; 0x14c <_Z7pinModehh>
	    pinMode(dIrpin2,OUTPUT);
    1be0:	80 91 de 02 	lds	r24, 0x02DE
    1be4:	61 e0       	ldi	r22, 0x01	; 1
    1be6:	0e 94 a6 00 	call	0x14c	; 0x14c <_Z7pinModehh>
	    pinMode(dIrpin3,OUTPUT);
    1bea:	80 91 e2 02 	lds	r24, 0x02E2
    1bee:	61 e0       	ldi	r22, 0x01	; 1
    1bf0:	0e 94 a6 00 	call	0x14c	; 0x14c <_Z7pinModehh>
		digitalWrite(dIrpin,dIrection);
    1bf4:	80 91 d5 02 	lds	r24, 0x02D5
    1bf8:	61 e0       	ldi	r22, 0x01	; 1
    1bfa:	0e 94 19 02 	call	0x432	; 0x432 <_Z12digitalWritehh>
		digitalWrite(dIrpin1,dIrection1);
    1bfe:	80 91 da 02 	lds	r24, 0x02DA
    1c02:	61 e0       	ldi	r22, 0x01	; 1
    1c04:	0e 94 19 02 	call	0x432	; 0x432 <_Z12digitalWritehh>
		digitalWrite(dIrpin2,dIrection2);
    1c08:	80 91 de 02 	lds	r24, 0x02DE
    1c0c:	61 e0       	ldi	r22, 0x01	; 1
    1c0e:	0e 94 19 02 	call	0x432	; 0x432 <_Z12digitalWritehh>
		digitalWrite(dIrpin3,dIrection3);
    1c12:	80 91 e2 02 	lds	r24, 0x02E2
    1c16:	61 e0       	ldi	r22, 0x01	; 1
    1c18:	0e 94 19 02 	call	0x432	; 0x432 <_Z12digitalWritehh>
	}	
	
	//FOUR MOTORS
	void drive(uint8_t pWm, uint8_t pWm1, uint8_t pWm2, uint8_t pWm3){
		
		if(pWm>lAstpwm||pWm1>lAstpwm1||pWm2>lAstpwm2||pWm3>lAstpwm3){		//accelerate
    1c1c:	80 91 d7 02 	lds	r24, 0x02D7
    1c20:	88 3c       	cpi	r24, 0xC8	; 200
    1c22:	08 f4       	brcc	.+2      	; 0x1c26 <_Z7forwardv+0xb54>
    1c24:	9f c0       	rjmp	.+318    	; 0x1d64 <_Z7forwardv+0xc92>
    1c26:	90 91 dc 02 	lds	r25, 0x02DC
    1c2a:	98 3c       	cpi	r25, 0xC8	; 200
    1c2c:	08 f4       	brcc	.+2      	; 0x1c30 <_Z7forwardv+0xb5e>
    1c2e:	9a c0       	rjmp	.+308    	; 0x1d64 <_Z7forwardv+0xc92>
    1c30:	20 91 e0 02 	lds	r18, 0x02E0
    1c34:	28 3c       	cpi	r18, 0xC8	; 200
    1c36:	08 f4       	brcc	.+2      	; 0x1c3a <_Z7forwardv+0xb68>
    1c38:	95 c0       	rjmp	.+298    	; 0x1d64 <_Z7forwardv+0xc92>
    1c3a:	30 91 e4 02 	lds	r19, 0x02E4
    1c3e:	38 3c       	cpi	r19, 0xC8	; 200
    1c40:	08 f4       	brcc	.+2      	; 0x1c44 <_Z7forwardv+0xb72>
    1c42:	90 c0       	rjmp	.+288    	; 0x1d64 <_Z7forwardv+0xc92>
    1c44:	f0 c0       	rjmp	.+480    	; 0x1e26 <_Z7forwardv+0xd54>

			for(lAstpwm=lAstpwm,lAstpwm1=lAstpwm1,lAstpwm2=lAstpwm2,lAstpwm3=lAstpwm3;lAstpwm<pWm||lAstpwm1<pWm1||lAstpwm2<pWm2||lAstpwm3<pWm3;){		//increase the speed step by step
				if (pWm>lAstpwm){
					lAstpwm+=step1;
    1c46:	f2 01       	movw	r30, r4
    1c48:	60 81       	ld	r22, Z
    1c4a:	86 0f       	add	r24, r22
    1c4c:	e9 81       	ldd	r30, Y+1	; 0x01
    1c4e:	fa 81       	ldd	r31, Y+2	; 0x02
    1c50:	80 83       	st	Z, r24
					analogWrite(pWmpin,constrain(lAstpwm,0,pWm));
    1c52:	68 2f       	mov	r22, r24
    1c54:	70 e0       	ldi	r23, 0x00	; 0
    1c56:	80 e0       	ldi	r24, 0x00	; 0
    1c58:	90 e0       	ldi	r25, 0x00	; 0
    1c5a:	20 e0       	ldi	r18, 0x00	; 0
    1c5c:	30 e0       	ldi	r19, 0x00	; 0
    1c5e:	a9 01       	movw	r20, r18
    1c60:	0f 2e       	mov	r0, r31
    1c62:	f8 ec       	ldi	r31, 0xC8	; 200
    1c64:	ef 2e       	mov	r14, r31
    1c66:	f0 e0       	ldi	r31, 0x00	; 0
    1c68:	ff 2e       	mov	r15, r31
    1c6a:	f0 e0       	ldi	r31, 0x00	; 0
    1c6c:	0f 2f       	mov	r16, r31
    1c6e:	f0 e0       	ldi	r31, 0x00	; 0
    1c70:	1f 2f       	mov	r17, r31
    1c72:	f0 2d       	mov	r31, r0
    1c74:	0e 94 cc 05 	call	0xb98	; 0xb98 <_Z9constrainlll>
    1c78:	eb 81       	ldd	r30, Y+3	; 0x03
    1c7a:	fc 81       	ldd	r31, Y+4	; 0x04
    1c7c:	80 81       	ld	r24, Z
    1c7e:	0e 94 11 04 	call	0x822	; 0x822 <_Z11analogWritehh>
				}
				if (pWm1>lAstpwm1){
    1c82:	ec ed       	ldi	r30, 0xDC	; 220
    1c84:	f2 e0       	ldi	r31, 0x02	; 2
    1c86:	80 81       	ld	r24, Z
    1c88:	88 3c       	cpi	r24, 0xC8	; 200
    1c8a:	f0 f4       	brcc	.+60     	; 0x1cc8 <_Z7forwardv+0xbf6>
					lAstpwm1+=step2;
    1c8c:	f1 01       	movw	r30, r2
    1c8e:	60 81       	ld	r22, Z
    1c90:	86 0f       	add	r24, r22
    1c92:	ed 81       	ldd	r30, Y+5	; 0x05
    1c94:	fe 81       	ldd	r31, Y+6	; 0x06
    1c96:	80 83       	st	Z, r24
					analogWrite(pWmpin1,constrain(lAstpwm1,0,pWm1));
    1c98:	68 2f       	mov	r22, r24
    1c9a:	70 e0       	ldi	r23, 0x00	; 0
    1c9c:	80 e0       	ldi	r24, 0x00	; 0
    1c9e:	90 e0       	ldi	r25, 0x00	; 0
    1ca0:	20 e0       	ldi	r18, 0x00	; 0
    1ca2:	30 e0       	ldi	r19, 0x00	; 0
    1ca4:	a9 01       	movw	r20, r18
    1ca6:	0f 2e       	mov	r0, r31
    1ca8:	f8 ec       	ldi	r31, 0xC8	; 200
    1caa:	ef 2e       	mov	r14, r31
    1cac:	f0 e0       	ldi	r31, 0x00	; 0
    1cae:	ff 2e       	mov	r15, r31
    1cb0:	f0 e0       	ldi	r31, 0x00	; 0
    1cb2:	0f 2f       	mov	r16, r31
    1cb4:	f0 e0       	ldi	r31, 0x00	; 0
    1cb6:	1f 2f       	mov	r17, r31
    1cb8:	f0 2d       	mov	r31, r0
    1cba:	0e 94 cc 05 	call	0xb98	; 0xb98 <_Z9constrainlll>
    1cbe:	ef 81       	ldd	r30, Y+7	; 0x07
    1cc0:	f8 85       	ldd	r31, Y+8	; 0x08
    1cc2:	80 81       	ld	r24, Z
    1cc4:	0e 94 11 04 	call	0x822	; 0x822 <_Z11analogWritehh>
				}
				if (pWm2>lAstpwm2){
    1cc8:	f6 01       	movw	r30, r12
    1cca:	80 81       	ld	r24, Z
    1ccc:	88 3c       	cpi	r24, 0xC8	; 200
    1cce:	f8 f4       	brcc	.+62     	; 0x1d0e <_Z7forwardv+0xc3c>
					lAstpwm2+=step3;
    1cd0:	e1 ee       	ldi	r30, 0xE1	; 225
    1cd2:	f2 e0       	ldi	r31, 0x02	; 2
    1cd4:	60 81       	ld	r22, Z
    1cd6:	86 0f       	add	r24, r22
    1cd8:	e9 85       	ldd	r30, Y+9	; 0x09
    1cda:	fa 85       	ldd	r31, Y+10	; 0x0a
    1cdc:	80 83       	st	Z, r24
					analogWrite(pWmpin2,constrain(lAstpwm2,0,pWm2));
    1cde:	68 2f       	mov	r22, r24
    1ce0:	70 e0       	ldi	r23, 0x00	; 0
    1ce2:	80 e0       	ldi	r24, 0x00	; 0
    1ce4:	90 e0       	ldi	r25, 0x00	; 0
    1ce6:	20 e0       	ldi	r18, 0x00	; 0
    1ce8:	30 e0       	ldi	r19, 0x00	; 0
    1cea:	a9 01       	movw	r20, r18
    1cec:	0f 2e       	mov	r0, r31
    1cee:	f8 ec       	ldi	r31, 0xC8	; 200
    1cf0:	ef 2e       	mov	r14, r31
    1cf2:	f0 e0       	ldi	r31, 0x00	; 0
    1cf4:	ff 2e       	mov	r15, r31
    1cf6:	f0 e0       	ldi	r31, 0x00	; 0
    1cf8:	0f 2f       	mov	r16, r31
    1cfa:	f0 e0       	ldi	r31, 0x00	; 0
    1cfc:	1f 2f       	mov	r17, r31
    1cfe:	f0 2d       	mov	r31, r0
    1d00:	0e 94 cc 05 	call	0xb98	; 0xb98 <_Z9constrainlll>
    1d04:	eb 85       	ldd	r30, Y+11	; 0x0b
    1d06:	fc 85       	ldd	r31, Y+12	; 0x0c
    1d08:	80 81       	ld	r24, Z
    1d0a:	0e 94 11 04 	call	0x822	; 0x822 <_Z11analogWritehh>
				}
				if (pWm3>lAstpwm3){
    1d0e:	f5 01       	movw	r30, r10
    1d10:	80 81       	ld	r24, Z
    1d12:	88 3c       	cpi	r24, 0xC8	; 200
    1d14:	f8 f4       	brcc	.+62     	; 0x1d54 <_Z7forwardv+0xc82>
					lAstpwm3+=step4;
    1d16:	e5 ee       	ldi	r30, 0xE5	; 229
    1d18:	f2 e0       	ldi	r31, 0x02	; 2
    1d1a:	60 81       	ld	r22, Z
    1d1c:	86 0f       	add	r24, r22
    1d1e:	ed 85       	ldd	r30, Y+13	; 0x0d
    1d20:	fe 85       	ldd	r31, Y+14	; 0x0e
    1d22:	80 83       	st	Z, r24
					analogWrite(pWmpin3,constrain(lAstpwm3,0,pWm3));
    1d24:	68 2f       	mov	r22, r24
    1d26:	70 e0       	ldi	r23, 0x00	; 0
    1d28:	80 e0       	ldi	r24, 0x00	; 0
    1d2a:	90 e0       	ldi	r25, 0x00	; 0
    1d2c:	20 e0       	ldi	r18, 0x00	; 0
    1d2e:	30 e0       	ldi	r19, 0x00	; 0
    1d30:	a9 01       	movw	r20, r18
    1d32:	0f 2e       	mov	r0, r31
    1d34:	f8 ec       	ldi	r31, 0xC8	; 200
    1d36:	ef 2e       	mov	r14, r31
    1d38:	f0 e0       	ldi	r31, 0x00	; 0
    1d3a:	ff 2e       	mov	r15, r31
    1d3c:	f0 e0       	ldi	r31, 0x00	; 0
    1d3e:	0f 2f       	mov	r16, r31
    1d40:	f0 e0       	ldi	r31, 0x00	; 0
    1d42:	1f 2f       	mov	r17, r31
    1d44:	f0 2d       	mov	r31, r0
    1d46:	0e 94 cc 05 	call	0xb98	; 0xb98 <_Z9constrainlll>
    1d4a:	ef 85       	ldd	r30, Y+15	; 0x0f
    1d4c:	f8 89       	ldd	r31, Y+16	; 0x10
    1d4e:	80 81       	ld	r24, Z
    1d50:	0e 94 11 04 	call	0x822	; 0x822 <_Z11analogWritehh>
				}	
				delay(interval);		
    1d54:	f3 01       	movw	r30, r6
    1d56:	60 81       	ld	r22, Z
    1d58:	70 e0       	ldi	r23, 0x00	; 0
    1d5a:	80 e0       	ldi	r24, 0x00	; 0
    1d5c:	90 e0       	ldi	r25, 0x00	; 0
    1d5e:	0e 94 4a 05 	call	0xa94	; 0xa94 <_Z5delaym>
    1d62:	4b c0       	rjmp	.+150    	; 0x1dfa <_Z7forwardv+0xd28>
	//FOUR MOTORS
	void drive(uint8_t pWm, uint8_t pWm1, uint8_t pWm2, uint8_t pWm3){
		
		if(pWm>lAstpwm||pWm1>lAstpwm1||pWm2>lAstpwm2||pWm3>lAstpwm3){		//accelerate

			for(lAstpwm=lAstpwm,lAstpwm1=lAstpwm1,lAstpwm2=lAstpwm2,lAstpwm3=lAstpwm3;lAstpwm<pWm||lAstpwm1<pWm1||lAstpwm2<pWm2||lAstpwm3<pWm3;){		//increase the speed step by step
    1d64:	0f 2e       	mov	r0, r31
    1d66:	f7 ed       	ldi	r31, 0xD7	; 215
    1d68:	8f 2e       	mov	r8, r31
    1d6a:	f2 e0       	ldi	r31, 0x02	; 2
    1d6c:	9f 2e       	mov	r9, r31
    1d6e:	f0 2d       	mov	r31, r0
				if (pWm>lAstpwm){
					lAstpwm+=step1;
    1d70:	0f 2e       	mov	r0, r31
    1d72:	f8 ed       	ldi	r31, 0xD8	; 216
    1d74:	4f 2e       	mov	r4, r31
    1d76:	f2 e0       	ldi	r31, 0x02	; 2
    1d78:	5f 2e       	mov	r5, r31
    1d7a:	f0 2d       	mov	r31, r0
    1d7c:	a2 01       	movw	r20, r4
    1d7e:	41 50       	subi	r20, 0x01	; 1
    1d80:	50 40       	sbci	r21, 0x00	; 0
    1d82:	5a 83       	std	Y+2, r21	; 0x02
    1d84:	49 83       	std	Y+1, r20	; 0x01
					analogWrite(pWmpin,constrain(lAstpwm,0,pWm));
    1d86:	c2 01       	movw	r24, r4
    1d88:	02 97       	sbiw	r24, 0x02	; 2
    1d8a:	9c 83       	std	Y+4, r25	; 0x04
    1d8c:	8b 83       	std	Y+3, r24	; 0x03
	//FOUR MOTORS
	void drive(uint8_t pWm, uint8_t pWm1, uint8_t pWm2, uint8_t pWm3){
		
		if(pWm>lAstpwm||pWm1>lAstpwm1||pWm2>lAstpwm2||pWm3>lAstpwm3){		//accelerate

			for(lAstpwm=lAstpwm,lAstpwm1=lAstpwm1,lAstpwm2=lAstpwm2,lAstpwm3=lAstpwm3;lAstpwm<pWm||lAstpwm1<pWm1||lAstpwm2<pWm2||lAstpwm3<pWm3;){		//increase the speed step by step
    1d8e:	0f 2e       	mov	r0, r31
    1d90:	f0 ee       	ldi	r31, 0xE0	; 224
    1d92:	cf 2e       	mov	r12, r31
    1d94:	f2 e0       	ldi	r31, 0x02	; 2
    1d96:	df 2e       	mov	r13, r31
    1d98:	f0 2d       	mov	r31, r0
    1d9a:	0f 2e       	mov	r0, r31
    1d9c:	f4 ee       	ldi	r31, 0xE4	; 228
    1d9e:	af 2e       	mov	r10, r31
    1da0:	f2 e0       	ldi	r31, 0x02	; 2
    1da2:	bf 2e       	mov	r11, r31
    1da4:	f0 2d       	mov	r31, r0
				if (pWm>lAstpwm){
					lAstpwm+=step1;
					analogWrite(pWmpin,constrain(lAstpwm,0,pWm));
				}
				if (pWm1>lAstpwm1){
					lAstpwm1+=step2;
    1da6:	0f 2e       	mov	r0, r31
    1da8:	fd ed       	ldi	r31, 0xDD	; 221
    1daa:	2f 2e       	mov	r2, r31
    1dac:	f2 e0       	ldi	r31, 0x02	; 2
    1dae:	3f 2e       	mov	r3, r31
    1db0:	f0 2d       	mov	r31, r0
    1db2:	f1 01       	movw	r30, r2
    1db4:	31 97       	sbiw	r30, 0x01	; 1
    1db6:	fe 83       	std	Y+6, r31	; 0x06
    1db8:	ed 83       	std	Y+5, r30	; 0x05
					analogWrite(pWmpin1,constrain(lAstpwm1,0,pWm1));
    1dba:	a1 01       	movw	r20, r2
    1dbc:	42 50       	subi	r20, 0x02	; 2
    1dbe:	50 40       	sbci	r21, 0x00	; 0
    1dc0:	58 87       	std	Y+8, r21	; 0x08
    1dc2:	4f 83       	std	Y+7, r20	; 0x07
				}
				if (pWm2>lAstpwm2){
					lAstpwm2+=step3;
    1dc4:	81 ee       	ldi	r24, 0xE1	; 225
    1dc6:	92 e0       	ldi	r25, 0x02	; 2
    1dc8:	01 97       	sbiw	r24, 0x01	; 1
    1dca:	9a 87       	std	Y+10, r25	; 0x0a
    1dcc:	89 87       	std	Y+9, r24	; 0x09
					analogWrite(pWmpin2,constrain(lAstpwm2,0,pWm2));
    1dce:	e1 ee       	ldi	r30, 0xE1	; 225
    1dd0:	f2 e0       	ldi	r31, 0x02	; 2
    1dd2:	32 97       	sbiw	r30, 0x02	; 2
    1dd4:	fc 87       	std	Y+12, r31	; 0x0c
    1dd6:	eb 87       	std	Y+11, r30	; 0x0b
				}
				if (pWm3>lAstpwm3){
					lAstpwm3+=step4;
    1dd8:	45 ee       	ldi	r20, 0xE5	; 229
    1dda:	52 e0       	ldi	r21, 0x02	; 2
    1ddc:	41 50       	subi	r20, 0x01	; 1
    1dde:	50 40       	sbci	r21, 0x00	; 0
    1de0:	5e 87       	std	Y+14, r21	; 0x0e
    1de2:	4d 87       	std	Y+13, r20	; 0x0d
					analogWrite(pWmpin3,constrain(lAstpwm3,0,pWm3));
    1de4:	85 ee       	ldi	r24, 0xE5	; 229
    1de6:	92 e0       	ldi	r25, 0x02	; 2
    1de8:	02 97       	sbiw	r24, 0x02	; 2
    1dea:	98 8b       	std	Y+16, r25	; 0x10
    1dec:	8f 87       	std	Y+15, r24	; 0x0f
				}	
				delay(interval);		
    1dee:	0f 2e       	mov	r0, r31
    1df0:	f9 ed       	ldi	r31, 0xD9	; 217
    1df2:	6f 2e       	mov	r6, r31
    1df4:	f2 e0       	ldi	r31, 0x02	; 2
    1df6:	7f 2e       	mov	r7, r31
    1df8:	f0 2d       	mov	r31, r0
	//FOUR MOTORS
	void drive(uint8_t pWm, uint8_t pWm1, uint8_t pWm2, uint8_t pWm3){
		
		if(pWm>lAstpwm||pWm1>lAstpwm1||pWm2>lAstpwm2||pWm3>lAstpwm3){		//accelerate

			for(lAstpwm=lAstpwm,lAstpwm1=lAstpwm1,lAstpwm2=lAstpwm2,lAstpwm3=lAstpwm3;lAstpwm<pWm||lAstpwm1<pWm1||lAstpwm2<pWm2||lAstpwm3<pWm3;){		//increase the speed step by step
    1dfa:	f4 01       	movw	r30, r8
    1dfc:	80 81       	ld	r24, Z
    1dfe:	88 3c       	cpi	r24, 0xC8	; 200
    1e00:	08 f4       	brcc	.+2      	; 0x1e04 <_Z7forwardv+0xd32>
    1e02:	21 cf       	rjmp	.-446    	; 0x1c46 <_Z7forwardv+0xb74>
    1e04:	ec ed       	ldi	r30, 0xDC	; 220
    1e06:	f2 e0       	ldi	r31, 0x02	; 2
    1e08:	80 81       	ld	r24, Z
    1e0a:	88 3c       	cpi	r24, 0xC8	; 200
    1e0c:	08 f4       	brcc	.+2      	; 0x1e10 <_Z7forwardv+0xd3e>
    1e0e:	39 cf       	rjmp	.-398    	; 0x1c82 <_Z7forwardv+0xbb0>
    1e10:	f6 01       	movw	r30, r12
    1e12:	80 81       	ld	r24, Z
    1e14:	88 3c       	cpi	r24, 0xC8	; 200
    1e16:	08 f4       	brcc	.+2      	; 0x1e1a <_Z7forwardv+0xd48>
    1e18:	34 cf       	rjmp	.-408    	; 0x1c82 <_Z7forwardv+0xbb0>
    1e1a:	f5 01       	movw	r30, r10
    1e1c:	80 81       	ld	r24, Z
    1e1e:	88 3c       	cpi	r24, 0xC8	; 200
    1e20:	08 f0       	brcs	.+2      	; 0x1e24 <_Z7forwardv+0xd52>
    1e22:	11 c1       	rjmp	.+546    	; 0x2046 <_Z7forwardv+0xf74>
    1e24:	2e cf       	rjmp	.-420    	; 0x1c82 <_Z7forwardv+0xbb0>
				delay(interval);		
			}
			
		}

		else if(pWm<lAstpwm||pWm1<lAstpwm1||pWm2<lAstpwm2||pWm3<lAstpwm3){				//decelerate
    1e26:	89 3c       	cpi	r24, 0xC9	; 201
    1e28:	08 f0       	brcs	.+2      	; 0x1e2c <_Z7forwardv+0xd5a>
    1e2a:	99 c0       	rjmp	.+306    	; 0x1f5e <_Z7forwardv+0xe8c>
    1e2c:	99 3c       	cpi	r25, 0xC9	; 201
    1e2e:	08 f0       	brcs	.+2      	; 0x1e32 <_Z7forwardv+0xd60>
    1e30:	96 c0       	rjmp	.+300    	; 0x1f5e <_Z7forwardv+0xe8c>
    1e32:	29 3c       	cpi	r18, 0xC9	; 201
    1e34:	08 f0       	brcs	.+2      	; 0x1e38 <_Z7forwardv+0xd66>
    1e36:	93 c0       	rjmp	.+294    	; 0x1f5e <_Z7forwardv+0xe8c>
    1e38:	39 3c       	cpi	r19, 0xC9	; 201
    1e3a:	08 f0       	brcs	.+2      	; 0x1e3e <_Z7forwardv+0xd6c>
    1e3c:	90 c0       	rjmp	.+288    	; 0x1f5e <_Z7forwardv+0xe8c>
    1e3e:	ef c0       	rjmp	.+478    	; 0x201e <_Z7forwardv+0xf4c>

			for(lAstpwm=lAstpwm,lAstpwm1=lAstpwm1,lAstpwm2=lAstpwm2,lAstpwm3=lAstpwm3;lAstpwm>pWm||lAstpwm1>pWm1||lAstpwm2>pWm2||lAstpwm3>pWm3;){		//decrease the speed step by step
				if (pWm<lAstpwm){
					lAstpwm-=step1;
    1e40:	f2 01       	movw	r30, r4
    1e42:	80 81       	ld	r24, Z
    1e44:	68 1b       	sub	r22, r24
    1e46:	e9 81       	ldd	r30, Y+1	; 0x01
    1e48:	fa 81       	ldd	r31, Y+2	; 0x02
    1e4a:	60 83       	st	Z, r22
					analogWrite(pWmpin,constrain(lAstpwm,pWm,255));
    1e4c:	70 e0       	ldi	r23, 0x00	; 0
    1e4e:	80 e0       	ldi	r24, 0x00	; 0
    1e50:	90 e0       	ldi	r25, 0x00	; 0
    1e52:	28 ec       	ldi	r18, 0xC8	; 200
    1e54:	30 e0       	ldi	r19, 0x00	; 0
    1e56:	40 e0       	ldi	r20, 0x00	; 0
    1e58:	50 e0       	ldi	r21, 0x00	; 0
    1e5a:	0f 2e       	mov	r0, r31
    1e5c:	ff ef       	ldi	r31, 0xFF	; 255
    1e5e:	ef 2e       	mov	r14, r31
    1e60:	f0 e0       	ldi	r31, 0x00	; 0
    1e62:	ff 2e       	mov	r15, r31
    1e64:	f0 e0       	ldi	r31, 0x00	; 0
    1e66:	0f 2f       	mov	r16, r31
    1e68:	f0 e0       	ldi	r31, 0x00	; 0
    1e6a:	1f 2f       	mov	r17, r31
    1e6c:	f0 2d       	mov	r31, r0
    1e6e:	0e 94 cc 05 	call	0xb98	; 0xb98 <_Z9constrainlll>
    1e72:	eb 81       	ldd	r30, Y+3	; 0x03
    1e74:	fc 81       	ldd	r31, Y+4	; 0x04
    1e76:	80 81       	ld	r24, Z
    1e78:	0e 94 11 04 	call	0x822	; 0x822 <_Z11analogWritehh>
				}
				if (pWm1<lAstpwm1){
    1e7c:	ec ed       	ldi	r30, 0xDC	; 220
    1e7e:	f2 e0       	ldi	r31, 0x02	; 2
    1e80:	60 81       	ld	r22, Z
    1e82:	69 3c       	cpi	r22, 0xC9	; 201
    1e84:	f0 f0       	brcs	.+60     	; 0x1ec2 <_Z7forwardv+0xdf0>
					lAstpwm1-=step2;
    1e86:	f1 01       	movw	r30, r2
    1e88:	80 81       	ld	r24, Z
    1e8a:	68 1b       	sub	r22, r24
    1e8c:	ed 81       	ldd	r30, Y+5	; 0x05
    1e8e:	fe 81       	ldd	r31, Y+6	; 0x06
    1e90:	60 83       	st	Z, r22
					analogWrite(pWmpin1,constrain(lAstpwm1,pWm1,255));
    1e92:	70 e0       	ldi	r23, 0x00	; 0
    1e94:	80 e0       	ldi	r24, 0x00	; 0
    1e96:	90 e0       	ldi	r25, 0x00	; 0
    1e98:	28 ec       	ldi	r18, 0xC8	; 200
    1e9a:	30 e0       	ldi	r19, 0x00	; 0
    1e9c:	40 e0       	ldi	r20, 0x00	; 0
    1e9e:	50 e0       	ldi	r21, 0x00	; 0
    1ea0:	0f 2e       	mov	r0, r31
    1ea2:	ff ef       	ldi	r31, 0xFF	; 255
    1ea4:	ef 2e       	mov	r14, r31
    1ea6:	f0 e0       	ldi	r31, 0x00	; 0
    1ea8:	ff 2e       	mov	r15, r31
    1eaa:	f0 e0       	ldi	r31, 0x00	; 0
    1eac:	0f 2f       	mov	r16, r31
    1eae:	f0 e0       	ldi	r31, 0x00	; 0
    1eb0:	1f 2f       	mov	r17, r31
    1eb2:	f0 2d       	mov	r31, r0
    1eb4:	0e 94 cc 05 	call	0xb98	; 0xb98 <_Z9constrainlll>
    1eb8:	ef 81       	ldd	r30, Y+7	; 0x07
    1eba:	f8 85       	ldd	r31, Y+8	; 0x08
    1ebc:	80 81       	ld	r24, Z
    1ebe:	0e 94 11 04 	call	0x822	; 0x822 <_Z11analogWritehh>
				}
				if (pWm2<lAstpwm2){
    1ec2:	f6 01       	movw	r30, r12
    1ec4:	60 81       	ld	r22, Z
    1ec6:	69 3c       	cpi	r22, 0xC9	; 201
    1ec8:	f8 f0       	brcs	.+62     	; 0x1f08 <_Z7forwardv+0xe36>
					lAstpwm2-=step3;
    1eca:	e1 ee       	ldi	r30, 0xE1	; 225
    1ecc:	f2 e0       	ldi	r31, 0x02	; 2
    1ece:	80 81       	ld	r24, Z
    1ed0:	68 1b       	sub	r22, r24
    1ed2:	e9 85       	ldd	r30, Y+9	; 0x09
    1ed4:	fa 85       	ldd	r31, Y+10	; 0x0a
    1ed6:	60 83       	st	Z, r22
					analogWrite(pWmpin2,constrain(lAstpwm2,pWm2,255));
    1ed8:	70 e0       	ldi	r23, 0x00	; 0
    1eda:	80 e0       	ldi	r24, 0x00	; 0
    1edc:	90 e0       	ldi	r25, 0x00	; 0
    1ede:	28 ec       	ldi	r18, 0xC8	; 200
    1ee0:	30 e0       	ldi	r19, 0x00	; 0
    1ee2:	40 e0       	ldi	r20, 0x00	; 0
    1ee4:	50 e0       	ldi	r21, 0x00	; 0
    1ee6:	0f 2e       	mov	r0, r31
    1ee8:	ff ef       	ldi	r31, 0xFF	; 255
    1eea:	ef 2e       	mov	r14, r31
    1eec:	f0 e0       	ldi	r31, 0x00	; 0
    1eee:	ff 2e       	mov	r15, r31
    1ef0:	f0 e0       	ldi	r31, 0x00	; 0
    1ef2:	0f 2f       	mov	r16, r31
    1ef4:	f0 e0       	ldi	r31, 0x00	; 0
    1ef6:	1f 2f       	mov	r17, r31
    1ef8:	f0 2d       	mov	r31, r0
    1efa:	0e 94 cc 05 	call	0xb98	; 0xb98 <_Z9constrainlll>
    1efe:	eb 85       	ldd	r30, Y+11	; 0x0b
    1f00:	fc 85       	ldd	r31, Y+12	; 0x0c
    1f02:	80 81       	ld	r24, Z
    1f04:	0e 94 11 04 	call	0x822	; 0x822 <_Z11analogWritehh>
				}
				if (pWm3<lAstpwm3){
    1f08:	f5 01       	movw	r30, r10
    1f0a:	60 81       	ld	r22, Z
    1f0c:	69 3c       	cpi	r22, 0xC9	; 201
    1f0e:	f8 f0       	brcs	.+62     	; 0x1f4e <_Z7forwardv+0xe7c>
					lAstpwm3-=step4;
    1f10:	e5 ee       	ldi	r30, 0xE5	; 229
    1f12:	f2 e0       	ldi	r31, 0x02	; 2
    1f14:	80 81       	ld	r24, Z
    1f16:	68 1b       	sub	r22, r24
    1f18:	ed 85       	ldd	r30, Y+13	; 0x0d
    1f1a:	fe 85       	ldd	r31, Y+14	; 0x0e
    1f1c:	60 83       	st	Z, r22
					analogWrite(pWmpin3,constrain(lAstpwm3,pWm3,255));
    1f1e:	70 e0       	ldi	r23, 0x00	; 0
    1f20:	80 e0       	ldi	r24, 0x00	; 0
    1f22:	90 e0       	ldi	r25, 0x00	; 0
    1f24:	28 ec       	ldi	r18, 0xC8	; 200
    1f26:	30 e0       	ldi	r19, 0x00	; 0
    1f28:	40 e0       	ldi	r20, 0x00	; 0
    1f2a:	50 e0       	ldi	r21, 0x00	; 0
    1f2c:	0f 2e       	mov	r0, r31
    1f2e:	ff ef       	ldi	r31, 0xFF	; 255
    1f30:	ef 2e       	mov	r14, r31
    1f32:	f0 e0       	ldi	r31, 0x00	; 0
    1f34:	ff 2e       	mov	r15, r31
    1f36:	f0 e0       	ldi	r31, 0x00	; 0
    1f38:	0f 2f       	mov	r16, r31
    1f3a:	f0 e0       	ldi	r31, 0x00	; 0
    1f3c:	1f 2f       	mov	r17, r31
    1f3e:	f0 2d       	mov	r31, r0
    1f40:	0e 94 cc 05 	call	0xb98	; 0xb98 <_Z9constrainlll>
    1f44:	ef 85       	ldd	r30, Y+15	; 0x0f
    1f46:	f8 89       	ldd	r31, Y+16	; 0x10
    1f48:	80 81       	ld	r24, Z
    1f4a:	0e 94 11 04 	call	0x822	; 0x822 <_Z11analogWritehh>
				}
				delay(interval);		
    1f4e:	f3 01       	movw	r30, r6
    1f50:	60 81       	ld	r22, Z
    1f52:	70 e0       	ldi	r23, 0x00	; 0
    1f54:	80 e0       	ldi	r24, 0x00	; 0
    1f56:	90 e0       	ldi	r25, 0x00	; 0
    1f58:	0e 94 4a 05 	call	0xa94	; 0xa94 <_Z5delaym>
    1f5c:	4b c0       	rjmp	.+150    	; 0x1ff4 <_Z7forwardv+0xf22>
			
		}

		else if(pWm<lAstpwm||pWm1<lAstpwm1||pWm2<lAstpwm2||pWm3<lAstpwm3){				//decelerate

			for(lAstpwm=lAstpwm,lAstpwm1=lAstpwm1,lAstpwm2=lAstpwm2,lAstpwm3=lAstpwm3;lAstpwm>pWm||lAstpwm1>pWm1||lAstpwm2>pWm2||lAstpwm3>pWm3;){		//decrease the speed step by step
    1f5e:	0f 2e       	mov	r0, r31
    1f60:	f7 ed       	ldi	r31, 0xD7	; 215
    1f62:	8f 2e       	mov	r8, r31
    1f64:	f2 e0       	ldi	r31, 0x02	; 2
    1f66:	9f 2e       	mov	r9, r31
    1f68:	f0 2d       	mov	r31, r0
				if (pWm<lAstpwm){
					lAstpwm-=step1;
    1f6a:	0f 2e       	mov	r0, r31
    1f6c:	f8 ed       	ldi	r31, 0xD8	; 216
    1f6e:	4f 2e       	mov	r4, r31
    1f70:	f2 e0       	ldi	r31, 0x02	; 2
    1f72:	5f 2e       	mov	r5, r31
    1f74:	f0 2d       	mov	r31, r0
    1f76:	a2 01       	movw	r20, r4
    1f78:	41 50       	subi	r20, 0x01	; 1
    1f7a:	50 40       	sbci	r21, 0x00	; 0
    1f7c:	5a 83       	std	Y+2, r21	; 0x02
    1f7e:	49 83       	std	Y+1, r20	; 0x01
					analogWrite(pWmpin,constrain(lAstpwm,pWm,255));
    1f80:	c2 01       	movw	r24, r4
    1f82:	02 97       	sbiw	r24, 0x02	; 2
    1f84:	9c 83       	std	Y+4, r25	; 0x04
    1f86:	8b 83       	std	Y+3, r24	; 0x03
			
		}

		else if(pWm<lAstpwm||pWm1<lAstpwm1||pWm2<lAstpwm2||pWm3<lAstpwm3){				//decelerate

			for(lAstpwm=lAstpwm,lAstpwm1=lAstpwm1,lAstpwm2=lAstpwm2,lAstpwm3=lAstpwm3;lAstpwm>pWm||lAstpwm1>pWm1||lAstpwm2>pWm2||lAstpwm3>pWm3;){		//decrease the speed step by step
    1f88:	0f 2e       	mov	r0, r31
    1f8a:	f0 ee       	ldi	r31, 0xE0	; 224
    1f8c:	cf 2e       	mov	r12, r31
    1f8e:	f2 e0       	ldi	r31, 0x02	; 2
    1f90:	df 2e       	mov	r13, r31
    1f92:	f0 2d       	mov	r31, r0
    1f94:	0f 2e       	mov	r0, r31
    1f96:	f4 ee       	ldi	r31, 0xE4	; 228
    1f98:	af 2e       	mov	r10, r31
    1f9a:	f2 e0       	ldi	r31, 0x02	; 2
    1f9c:	bf 2e       	mov	r11, r31
    1f9e:	f0 2d       	mov	r31, r0
				if (pWm<lAstpwm){
					lAstpwm-=step1;
					analogWrite(pWmpin,constrain(lAstpwm,pWm,255));
				}
				if (pWm1<lAstpwm1){
					lAstpwm1-=step2;
    1fa0:	0f 2e       	mov	r0, r31
    1fa2:	fd ed       	ldi	r31, 0xDD	; 221
    1fa4:	2f 2e       	mov	r2, r31
    1fa6:	f2 e0       	ldi	r31, 0x02	; 2
    1fa8:	3f 2e       	mov	r3, r31
    1faa:	f0 2d       	mov	r31, r0
    1fac:	f1 01       	movw	r30, r2
    1fae:	31 97       	sbiw	r30, 0x01	; 1
    1fb0:	fe 83       	std	Y+6, r31	; 0x06
    1fb2:	ed 83       	std	Y+5, r30	; 0x05
					analogWrite(pWmpin1,constrain(lAstpwm1,pWm1,255));
    1fb4:	a1 01       	movw	r20, r2
    1fb6:	42 50       	subi	r20, 0x02	; 2
    1fb8:	50 40       	sbci	r21, 0x00	; 0
    1fba:	58 87       	std	Y+8, r21	; 0x08
    1fbc:	4f 83       	std	Y+7, r20	; 0x07
				}
				if (pWm2<lAstpwm2){
					lAstpwm2-=step3;
    1fbe:	81 ee       	ldi	r24, 0xE1	; 225
    1fc0:	92 e0       	ldi	r25, 0x02	; 2
    1fc2:	01 97       	sbiw	r24, 0x01	; 1
    1fc4:	9a 87       	std	Y+10, r25	; 0x0a
    1fc6:	89 87       	std	Y+9, r24	; 0x09
					analogWrite(pWmpin2,constrain(lAstpwm2,pWm2,255));
    1fc8:	e1 ee       	ldi	r30, 0xE1	; 225
    1fca:	f2 e0       	ldi	r31, 0x02	; 2
    1fcc:	32 97       	sbiw	r30, 0x02	; 2
    1fce:	fc 87       	std	Y+12, r31	; 0x0c
    1fd0:	eb 87       	std	Y+11, r30	; 0x0b
				}
				if (pWm3<lAstpwm3){
					lAstpwm3-=step4;
    1fd2:	45 ee       	ldi	r20, 0xE5	; 229
    1fd4:	52 e0       	ldi	r21, 0x02	; 2
    1fd6:	41 50       	subi	r20, 0x01	; 1
    1fd8:	50 40       	sbci	r21, 0x00	; 0
    1fda:	5e 87       	std	Y+14, r21	; 0x0e
    1fdc:	4d 87       	std	Y+13, r20	; 0x0d
					analogWrite(pWmpin3,constrain(lAstpwm3,pWm3,255));
    1fde:	85 ee       	ldi	r24, 0xE5	; 229
    1fe0:	92 e0       	ldi	r25, 0x02	; 2
    1fe2:	02 97       	sbiw	r24, 0x02	; 2
    1fe4:	98 8b       	std	Y+16, r25	; 0x10
    1fe6:	8f 87       	std	Y+15, r24	; 0x0f
				}
				delay(interval);		
    1fe8:	0f 2e       	mov	r0, r31
    1fea:	f9 ed       	ldi	r31, 0xD9	; 217
    1fec:	6f 2e       	mov	r6, r31
    1fee:	f2 e0       	ldi	r31, 0x02	; 2
    1ff0:	7f 2e       	mov	r7, r31
    1ff2:	f0 2d       	mov	r31, r0
			
		}

		else if(pWm<lAstpwm||pWm1<lAstpwm1||pWm2<lAstpwm2||pWm3<lAstpwm3){				//decelerate

			for(lAstpwm=lAstpwm,lAstpwm1=lAstpwm1,lAstpwm2=lAstpwm2,lAstpwm3=lAstpwm3;lAstpwm>pWm||lAstpwm1>pWm1||lAstpwm2>pWm2||lAstpwm3>pWm3;){		//decrease the speed step by step
    1ff4:	f4 01       	movw	r30, r8
    1ff6:	60 81       	ld	r22, Z
    1ff8:	69 3c       	cpi	r22, 0xC9	; 201
    1ffa:	08 f0       	brcs	.+2      	; 0x1ffe <_Z7forwardv+0xf2c>
    1ffc:	21 cf       	rjmp	.-446    	; 0x1e40 <_Z7forwardv+0xd6e>
    1ffe:	ec ed       	ldi	r30, 0xDC	; 220
    2000:	f2 e0       	ldi	r31, 0x02	; 2
    2002:	80 81       	ld	r24, Z
    2004:	89 3c       	cpi	r24, 0xC9	; 201
    2006:	08 f0       	brcs	.+2      	; 0x200a <_Z7forwardv+0xf38>
    2008:	39 cf       	rjmp	.-398    	; 0x1e7c <_Z7forwardv+0xdaa>
    200a:	f6 01       	movw	r30, r12
    200c:	80 81       	ld	r24, Z
    200e:	89 3c       	cpi	r24, 0xC9	; 201
    2010:	08 f0       	brcs	.+2      	; 0x2014 <_Z7forwardv+0xf42>
    2012:	34 cf       	rjmp	.-408    	; 0x1e7c <_Z7forwardv+0xdaa>
    2014:	f5 01       	movw	r30, r10
    2016:	80 81       	ld	r24, Z
    2018:	89 3c       	cpi	r24, 0xC9	; 201
    201a:	a8 f0       	brcs	.+42     	; 0x2046 <_Z7forwardv+0xf74>
    201c:	2f cf       	rjmp	.-418    	; 0x1e7c <_Z7forwardv+0xdaa>
				delay(interval);		
			}
		}

		else{		//no change
			analogWrite(pWmpin,pWm);
    201e:	80 91 d6 02 	lds	r24, 0x02D6
    2022:	68 ec       	ldi	r22, 0xC8	; 200
    2024:	0e 94 11 04 	call	0x822	; 0x822 <_Z11analogWritehh>
			analogWrite(pWmpin1,pWm1);
    2028:	80 91 db 02 	lds	r24, 0x02DB
    202c:	68 ec       	ldi	r22, 0xC8	; 200
    202e:	0e 94 11 04 	call	0x822	; 0x822 <_Z11analogWritehh>
			analogWrite(pWmpin2,pWm2);
    2032:	80 91 df 02 	lds	r24, 0x02DF
    2036:	68 ec       	ldi	r22, 0xC8	; 200
    2038:	0e 94 11 04 	call	0x822	; 0x822 <_Z11analogWritehh>
			analogWrite(pWmpin3,pWm3);
    203c:	80 91 e3 02 	lds	r24, 0x02E3
    2040:	68 ec       	ldi	r22, 0xC8	; 200
    2042:	0e 94 11 04 	call	0x822	; 0x822 <_Z11analogWritehh>
	motors.direction(1,1,1,1);
	motors.drive(200,200,200,200);
	d='f';
    2046:	86 e6       	ldi	r24, 0x66	; 102
    2048:	80 93 d4 02 	sts	0x02D4, r24
}
    204c:	60 96       	adiw	r28, 0x10	; 16
    204e:	0f b6       	in	r0, 0x3f	; 63
    2050:	f8 94       	cli
    2052:	de bf       	out	0x3e, r29	; 62
    2054:	0f be       	out	0x3f, r0	; 63
    2056:	cd bf       	out	0x3d, r28	; 61
    2058:	cf 91       	pop	r28
    205a:	df 91       	pop	r29
    205c:	1f 91       	pop	r17
    205e:	0f 91       	pop	r16
    2060:	ff 90       	pop	r15
    2062:	ef 90       	pop	r14
    2064:	df 90       	pop	r13
    2066:	cf 90       	pop	r12
    2068:	bf 90       	pop	r11
    206a:	af 90       	pop	r10
    206c:	9f 90       	pop	r9
    206e:	8f 90       	pop	r8
    2070:	7f 90       	pop	r7
    2072:	6f 90       	pop	r6
    2074:	5f 90       	pop	r5
    2076:	4f 90       	pop	r4
    2078:	3f 90       	pop	r3
    207a:	2f 90       	pop	r2
    207c:	08 95       	ret

0000207e <_Z8backwardv>:
void backward()
{	
    207e:	2f 92       	push	r2
    2080:	3f 92       	push	r3
    2082:	4f 92       	push	r4
    2084:	5f 92       	push	r5
    2086:	6f 92       	push	r6
    2088:	7f 92       	push	r7
    208a:	8f 92       	push	r8
    208c:	9f 92       	push	r9
    208e:	af 92       	push	r10
    2090:	bf 92       	push	r11
    2092:	cf 92       	push	r12
    2094:	df 92       	push	r13
    2096:	ef 92       	push	r14
    2098:	ff 92       	push	r15
    209a:	0f 93       	push	r16
    209c:	1f 93       	push	r17
    209e:	df 93       	push	r29
    20a0:	cf 93       	push	r28
    20a2:	cd b7       	in	r28, 0x3d	; 61
    20a4:	de b7       	in	r29, 0x3e	; 62
    20a6:	60 97       	sbiw	r28, 0x10	; 16
    20a8:	0f b6       	in	r0, 0x3f	; 63
    20aa:	f8 94       	cli
    20ac:	de bf       	out	0x3e, r29	; 62
    20ae:	0f be       	out	0x3f, r0	; 63
    20b0:	cd bf       	out	0x3d, r28	; 61
	if(d=='f')
    20b2:	80 91 d4 02 	lds	r24, 0x02D4
    20b6:	86 36       	cpi	r24, 0x66	; 102
    20b8:	09 f0       	breq	.+2      	; 0x20bc <_Z8backwardv+0x3e>
    20ba:	14 c1       	rjmp	.+552    	; 0x22e4 <__stack+0xe5>
				delay(interval);		
			}
			
		}

		else if(pWm<lAstpwm||pWm1<lAstpwm1||pWm2<lAstpwm2||pWm3<lAstpwm3){				//decelerate
    20bc:	80 91 d7 02 	lds	r24, 0x02D7
    20c0:	88 23       	and	r24, r24
    20c2:	09 f0       	breq	.+2      	; 0x20c6 <_Z8backwardv+0x48>
    20c4:	9b c0       	rjmp	.+310    	; 0x21fc <_Z8backwardv+0x17e>
    20c6:	80 91 dc 02 	lds	r24, 0x02DC
    20ca:	88 23       	and	r24, r24
    20cc:	09 f0       	breq	.+2      	; 0x20d0 <_Z8backwardv+0x52>
    20ce:	96 c0       	rjmp	.+300    	; 0x21fc <_Z8backwardv+0x17e>
    20d0:	80 91 e0 02 	lds	r24, 0x02E0
    20d4:	88 23       	and	r24, r24
    20d6:	09 f0       	breq	.+2      	; 0x20da <_Z8backwardv+0x5c>
    20d8:	91 c0       	rjmp	.+290    	; 0x21fc <_Z8backwardv+0x17e>
    20da:	80 91 e4 02 	lds	r24, 0x02E4
    20de:	88 23       	and	r24, r24
    20e0:	09 f0       	breq	.+2      	; 0x20e4 <_Z8backwardv+0x66>
    20e2:	8c c0       	rjmp	.+280    	; 0x21fc <_Z8backwardv+0x17e>
    20e4:	eb c0       	rjmp	.+470    	; 0x22bc <__stack+0xbd>

			for(lAstpwm=lAstpwm,lAstpwm1=lAstpwm1,lAstpwm2=lAstpwm2,lAstpwm3=lAstpwm3;lAstpwm>pWm||lAstpwm1>pWm1||lAstpwm2>pWm2||lAstpwm3>pWm3;){		//decrease the speed step by step
				if (pWm<lAstpwm){
					lAstpwm-=step1;
    20e6:	f2 01       	movw	r30, r4
    20e8:	80 81       	ld	r24, Z
    20ea:	68 1b       	sub	r22, r24
    20ec:	e9 81       	ldd	r30, Y+1	; 0x01
    20ee:	fa 81       	ldd	r31, Y+2	; 0x02
    20f0:	60 83       	st	Z, r22
					analogWrite(pWmpin,constrain(lAstpwm,pWm,255));
    20f2:	70 e0       	ldi	r23, 0x00	; 0
    20f4:	80 e0       	ldi	r24, 0x00	; 0
    20f6:	90 e0       	ldi	r25, 0x00	; 0
    20f8:	20 e0       	ldi	r18, 0x00	; 0
    20fa:	30 e0       	ldi	r19, 0x00	; 0
    20fc:	a9 01       	movw	r20, r18
    20fe:	0f 2e       	mov	r0, r31
    2100:	ff ef       	ldi	r31, 0xFF	; 255
    2102:	ef 2e       	mov	r14, r31
    2104:	f0 e0       	ldi	r31, 0x00	; 0
    2106:	ff 2e       	mov	r15, r31
    2108:	f0 e0       	ldi	r31, 0x00	; 0
    210a:	0f 2f       	mov	r16, r31
    210c:	f0 e0       	ldi	r31, 0x00	; 0
    210e:	1f 2f       	mov	r17, r31
    2110:	f0 2d       	mov	r31, r0
    2112:	0e 94 cc 05 	call	0xb98	; 0xb98 <_Z9constrainlll>
    2116:	eb 81       	ldd	r30, Y+3	; 0x03
    2118:	fc 81       	ldd	r31, Y+4	; 0x04
    211a:	80 81       	ld	r24, Z
    211c:	0e 94 11 04 	call	0x822	; 0x822 <_Z11analogWritehh>
				}
				if (pWm1<lAstpwm1){
    2120:	ec ed       	ldi	r30, 0xDC	; 220
    2122:	f2 e0       	ldi	r31, 0x02	; 2
    2124:	60 81       	ld	r22, Z
    2126:	66 23       	and	r22, r22
    2128:	e9 f0       	breq	.+58     	; 0x2164 <_Z8backwardv+0xe6>
					lAstpwm1-=step2;
    212a:	f1 01       	movw	r30, r2
    212c:	80 81       	ld	r24, Z
    212e:	68 1b       	sub	r22, r24
    2130:	ed 81       	ldd	r30, Y+5	; 0x05
    2132:	fe 81       	ldd	r31, Y+6	; 0x06
    2134:	60 83       	st	Z, r22
					analogWrite(pWmpin1,constrain(lAstpwm1,pWm1,255));
    2136:	70 e0       	ldi	r23, 0x00	; 0
    2138:	80 e0       	ldi	r24, 0x00	; 0
    213a:	90 e0       	ldi	r25, 0x00	; 0
    213c:	20 e0       	ldi	r18, 0x00	; 0
    213e:	30 e0       	ldi	r19, 0x00	; 0
    2140:	a9 01       	movw	r20, r18
    2142:	0f 2e       	mov	r0, r31
    2144:	ff ef       	ldi	r31, 0xFF	; 255
    2146:	ef 2e       	mov	r14, r31
    2148:	f0 e0       	ldi	r31, 0x00	; 0
    214a:	ff 2e       	mov	r15, r31
    214c:	f0 e0       	ldi	r31, 0x00	; 0
    214e:	0f 2f       	mov	r16, r31
    2150:	f0 e0       	ldi	r31, 0x00	; 0
    2152:	1f 2f       	mov	r17, r31
    2154:	f0 2d       	mov	r31, r0
    2156:	0e 94 cc 05 	call	0xb98	; 0xb98 <_Z9constrainlll>
    215a:	ef 81       	ldd	r30, Y+7	; 0x07
    215c:	f8 85       	ldd	r31, Y+8	; 0x08
    215e:	80 81       	ld	r24, Z
    2160:	0e 94 11 04 	call	0x822	; 0x822 <_Z11analogWritehh>
				}
				if (pWm2<lAstpwm2){
    2164:	f6 01       	movw	r30, r12
    2166:	60 81       	ld	r22, Z
    2168:	66 23       	and	r22, r22
    216a:	f1 f0       	breq	.+60     	; 0x21a8 <_Z8backwardv+0x12a>
					lAstpwm2-=step3;
    216c:	e1 ee       	ldi	r30, 0xE1	; 225
    216e:	f2 e0       	ldi	r31, 0x02	; 2
    2170:	80 81       	ld	r24, Z
    2172:	68 1b       	sub	r22, r24
    2174:	e9 85       	ldd	r30, Y+9	; 0x09
    2176:	fa 85       	ldd	r31, Y+10	; 0x0a
    2178:	60 83       	st	Z, r22
					analogWrite(pWmpin2,constrain(lAstpwm2,pWm2,255));
    217a:	70 e0       	ldi	r23, 0x00	; 0
    217c:	80 e0       	ldi	r24, 0x00	; 0
    217e:	90 e0       	ldi	r25, 0x00	; 0
    2180:	20 e0       	ldi	r18, 0x00	; 0
    2182:	30 e0       	ldi	r19, 0x00	; 0
    2184:	a9 01       	movw	r20, r18
    2186:	0f 2e       	mov	r0, r31
    2188:	ff ef       	ldi	r31, 0xFF	; 255
    218a:	ef 2e       	mov	r14, r31
    218c:	f0 e0       	ldi	r31, 0x00	; 0
    218e:	ff 2e       	mov	r15, r31
    2190:	f0 e0       	ldi	r31, 0x00	; 0
    2192:	0f 2f       	mov	r16, r31
    2194:	f0 e0       	ldi	r31, 0x00	; 0
    2196:	1f 2f       	mov	r17, r31
    2198:	f0 2d       	mov	r31, r0
    219a:	0e 94 cc 05 	call	0xb98	; 0xb98 <_Z9constrainlll>
    219e:	eb 85       	ldd	r30, Y+11	; 0x0b
    21a0:	fc 85       	ldd	r31, Y+12	; 0x0c
    21a2:	80 81       	ld	r24, Z
    21a4:	0e 94 11 04 	call	0x822	; 0x822 <_Z11analogWritehh>
				}
				if (pWm3<lAstpwm3){
    21a8:	f5 01       	movw	r30, r10
    21aa:	60 81       	ld	r22, Z
    21ac:	66 23       	and	r22, r22
    21ae:	f1 f0       	breq	.+60     	; 0x21ec <_Z8backwardv+0x16e>
					lAstpwm3-=step4;
    21b0:	e5 ee       	ldi	r30, 0xE5	; 229
    21b2:	f2 e0       	ldi	r31, 0x02	; 2
    21b4:	80 81       	ld	r24, Z
    21b6:	68 1b       	sub	r22, r24
    21b8:	ed 85       	ldd	r30, Y+13	; 0x0d
    21ba:	fe 85       	ldd	r31, Y+14	; 0x0e
    21bc:	60 83       	st	Z, r22
					analogWrite(pWmpin3,constrain(lAstpwm3,pWm3,255));
    21be:	70 e0       	ldi	r23, 0x00	; 0
    21c0:	80 e0       	ldi	r24, 0x00	; 0
    21c2:	90 e0       	ldi	r25, 0x00	; 0
    21c4:	20 e0       	ldi	r18, 0x00	; 0
    21c6:	30 e0       	ldi	r19, 0x00	; 0
    21c8:	a9 01       	movw	r20, r18
    21ca:	0f 2e       	mov	r0, r31
    21cc:	ff ef       	ldi	r31, 0xFF	; 255
    21ce:	ef 2e       	mov	r14, r31
    21d0:	f0 e0       	ldi	r31, 0x00	; 0
    21d2:	ff 2e       	mov	r15, r31
    21d4:	f0 e0       	ldi	r31, 0x00	; 0
    21d6:	0f 2f       	mov	r16, r31
    21d8:	f0 e0       	ldi	r31, 0x00	; 0
    21da:	1f 2f       	mov	r17, r31
    21dc:	f0 2d       	mov	r31, r0
    21de:	0e 94 cc 05 	call	0xb98	; 0xb98 <_Z9constrainlll>
    21e2:	ef 85       	ldd	r30, Y+15	; 0x0f
    21e4:	f8 89       	ldd	r31, Y+16	; 0x10
    21e6:	80 81       	ld	r24, Z
    21e8:	0e 94 11 04 	call	0x822	; 0x822 <_Z11analogWritehh>
				}
				delay(interval);		
    21ec:	f3 01       	movw	r30, r6
    21ee:	60 81       	ld	r22, Z
    21f0:	70 e0       	ldi	r23, 0x00	; 0
    21f2:	80 e0       	ldi	r24, 0x00	; 0
    21f4:	90 e0       	ldi	r25, 0x00	; 0
    21f6:	0e 94 4a 05 	call	0xa94	; 0xa94 <_Z5delaym>
    21fa:	4b c0       	rjmp	.+150    	; 0x2292 <__stack+0x93>
			
		}

		else if(pWm<lAstpwm||pWm1<lAstpwm1||pWm2<lAstpwm2||pWm3<lAstpwm3){				//decelerate

			for(lAstpwm=lAstpwm,lAstpwm1=lAstpwm1,lAstpwm2=lAstpwm2,lAstpwm3=lAstpwm3;lAstpwm>pWm||lAstpwm1>pWm1||lAstpwm2>pWm2||lAstpwm3>pWm3;){		//decrease the speed step by step
    21fc:	0f 2e       	mov	r0, r31
    21fe:	f7 ed       	ldi	r31, 0xD7	; 215
    2200:	8f 2e       	mov	r8, r31
    2202:	f2 e0       	ldi	r31, 0x02	; 2
    2204:	9f 2e       	mov	r9, r31
    2206:	f0 2d       	mov	r31, r0
				if (pWm<lAstpwm){
					lAstpwm-=step1;
    2208:	0f 2e       	mov	r0, r31
    220a:	f8 ed       	ldi	r31, 0xD8	; 216
    220c:	4f 2e       	mov	r4, r31
    220e:	f2 e0       	ldi	r31, 0x02	; 2
    2210:	5f 2e       	mov	r5, r31
    2212:	f0 2d       	mov	r31, r0
    2214:	a2 01       	movw	r20, r4
    2216:	41 50       	subi	r20, 0x01	; 1
    2218:	50 40       	sbci	r21, 0x00	; 0
    221a:	5a 83       	std	Y+2, r21	; 0x02
    221c:	49 83       	std	Y+1, r20	; 0x01
					analogWrite(pWmpin,constrain(lAstpwm,pWm,255));
    221e:	c2 01       	movw	r24, r4
    2220:	02 97       	sbiw	r24, 0x02	; 2
    2222:	9c 83       	std	Y+4, r25	; 0x04
    2224:	8b 83       	std	Y+3, r24	; 0x03
			
		}

		else if(pWm<lAstpwm||pWm1<lAstpwm1||pWm2<lAstpwm2||pWm3<lAstpwm3){				//decelerate

			for(lAstpwm=lAstpwm,lAstpwm1=lAstpwm1,lAstpwm2=lAstpwm2,lAstpwm3=lAstpwm3;lAstpwm>pWm||lAstpwm1>pWm1||lAstpwm2>pWm2||lAstpwm3>pWm3;){		//decrease the speed step by step
    2226:	0f 2e       	mov	r0, r31
    2228:	f0 ee       	ldi	r31, 0xE0	; 224
    222a:	cf 2e       	mov	r12, r31
    222c:	f2 e0       	ldi	r31, 0x02	; 2
    222e:	df 2e       	mov	r13, r31
    2230:	f0 2d       	mov	r31, r0
    2232:	0f 2e       	mov	r0, r31
    2234:	f4 ee       	ldi	r31, 0xE4	; 228
    2236:	af 2e       	mov	r10, r31
    2238:	f2 e0       	ldi	r31, 0x02	; 2
    223a:	bf 2e       	mov	r11, r31
    223c:	f0 2d       	mov	r31, r0
				if (pWm<lAstpwm){
					lAstpwm-=step1;
					analogWrite(pWmpin,constrain(lAstpwm,pWm,255));
				}
				if (pWm1<lAstpwm1){
					lAstpwm1-=step2;
    223e:	0f 2e       	mov	r0, r31
    2240:	fd ed       	ldi	r31, 0xDD	; 221
    2242:	2f 2e       	mov	r2, r31
    2244:	f2 e0       	ldi	r31, 0x02	; 2
    2246:	3f 2e       	mov	r3, r31
    2248:	f0 2d       	mov	r31, r0
    224a:	f1 01       	movw	r30, r2
    224c:	31 97       	sbiw	r30, 0x01	; 1
    224e:	fe 83       	std	Y+6, r31	; 0x06
    2250:	ed 83       	std	Y+5, r30	; 0x05
					analogWrite(pWmpin1,constrain(lAstpwm1,pWm1,255));
    2252:	a1 01       	movw	r20, r2
    2254:	42 50       	subi	r20, 0x02	; 2
    2256:	50 40       	sbci	r21, 0x00	; 0
    2258:	58 87       	std	Y+8, r21	; 0x08
    225a:	4f 83       	std	Y+7, r20	; 0x07
				}
				if (pWm2<lAstpwm2){
					lAstpwm2-=step3;
    225c:	81 ee       	ldi	r24, 0xE1	; 225
    225e:	92 e0       	ldi	r25, 0x02	; 2
    2260:	01 97       	sbiw	r24, 0x01	; 1
    2262:	9a 87       	std	Y+10, r25	; 0x0a
    2264:	89 87       	std	Y+9, r24	; 0x09
					analogWrite(pWmpin2,constrain(lAstpwm2,pWm2,255));
    2266:	e1 ee       	ldi	r30, 0xE1	; 225
    2268:	f2 e0       	ldi	r31, 0x02	; 2
    226a:	32 97       	sbiw	r30, 0x02	; 2
    226c:	fc 87       	std	Y+12, r31	; 0x0c
    226e:	eb 87       	std	Y+11, r30	; 0x0b
				}
				if (pWm3<lAstpwm3){
					lAstpwm3-=step4;
    2270:	45 ee       	ldi	r20, 0xE5	; 229
    2272:	52 e0       	ldi	r21, 0x02	; 2
    2274:	41 50       	subi	r20, 0x01	; 1
    2276:	50 40       	sbci	r21, 0x00	; 0
    2278:	5e 87       	std	Y+14, r21	; 0x0e
    227a:	4d 87       	std	Y+13, r20	; 0x0d
					analogWrite(pWmpin3,constrain(lAstpwm3,pWm3,255));
    227c:	85 ee       	ldi	r24, 0xE5	; 229
    227e:	92 e0       	ldi	r25, 0x02	; 2
    2280:	02 97       	sbiw	r24, 0x02	; 2
    2282:	98 8b       	std	Y+16, r25	; 0x10
    2284:	8f 87       	std	Y+15, r24	; 0x0f
				}
				delay(interval);		
    2286:	0f 2e       	mov	r0, r31
    2288:	f9 ed       	ldi	r31, 0xD9	; 217
    228a:	6f 2e       	mov	r6, r31
    228c:	f2 e0       	ldi	r31, 0x02	; 2
    228e:	7f 2e       	mov	r7, r31
    2290:	f0 2d       	mov	r31, r0
			
		}

		else if(pWm<lAstpwm||pWm1<lAstpwm1||pWm2<lAstpwm2||pWm3<lAstpwm3){				//decelerate

			for(lAstpwm=lAstpwm,lAstpwm1=lAstpwm1,lAstpwm2=lAstpwm2,lAstpwm3=lAstpwm3;lAstpwm>pWm||lAstpwm1>pWm1||lAstpwm2>pWm2||lAstpwm3>pWm3;){		//decrease the speed step by step
    2292:	f4 01       	movw	r30, r8
    2294:	60 81       	ld	r22, Z
    2296:	66 23       	and	r22, r22
    2298:	09 f0       	breq	.+2      	; 0x229c <__stack+0x9d>
    229a:	25 cf       	rjmp	.-438    	; 0x20e6 <_Z8backwardv+0x68>
    229c:	ec ed       	ldi	r30, 0xDC	; 220
    229e:	f2 e0       	ldi	r31, 0x02	; 2
    22a0:	80 81       	ld	r24, Z
    22a2:	88 23       	and	r24, r24
    22a4:	09 f0       	breq	.+2      	; 0x22a8 <__stack+0xa9>
    22a6:	3c cf       	rjmp	.-392    	; 0x2120 <_Z8backwardv+0xa2>
    22a8:	f6 01       	movw	r30, r12
    22aa:	80 81       	ld	r24, Z
    22ac:	88 23       	and	r24, r24
    22ae:	09 f0       	breq	.+2      	; 0x22b2 <__stack+0xb3>
    22b0:	37 cf       	rjmp	.-402    	; 0x2120 <_Z8backwardv+0xa2>
    22b2:	f5 01       	movw	r30, r10
    22b4:	80 81       	ld	r24, Z
    22b6:	88 23       	and	r24, r24
    22b8:	a9 f0       	breq	.+42     	; 0x22e4 <__stack+0xe5>
    22ba:	32 cf       	rjmp	.-412    	; 0x2120 <_Z8backwardv+0xa2>
				delay(interval);		
			}
		}

		else{		//no change
			analogWrite(pWmpin,pWm);
    22bc:	80 91 d6 02 	lds	r24, 0x02D6
    22c0:	60 e0       	ldi	r22, 0x00	; 0
    22c2:	0e 94 11 04 	call	0x822	; 0x822 <_Z11analogWritehh>
			analogWrite(pWmpin1,pWm1);
    22c6:	80 91 db 02 	lds	r24, 0x02DB
    22ca:	60 e0       	ldi	r22, 0x00	; 0
    22cc:	0e 94 11 04 	call	0x822	; 0x822 <_Z11analogWritehh>
			analogWrite(pWmpin2,pWm2);
    22d0:	80 91 df 02 	lds	r24, 0x02DF
    22d4:	60 e0       	ldi	r22, 0x00	; 0
    22d6:	0e 94 11 04 	call	0x822	; 0x822 <_Z11analogWritehh>
			analogWrite(pWmpin3,pWm3);
    22da:	80 91 e3 02 	lds	r24, 0x02E3
    22de:	60 e0       	ldi	r22, 0x00	; 0
    22e0:	0e 94 11 04 	call	0x822	; 0x822 <_Z11analogWritehh>
	motors.drive(0,0,0,0);

	angle=120;
    22e4:	88 e7       	ldi	r24, 0x78	; 120
    22e6:	90 e0       	ldi	r25, 0x00	; 0
    22e8:	90 93 bd 02 	sts	0x02BD, r25
    22ec:	80 93 bc 02 	sts	0x02BC, r24
     }
  }

  void write(int vAl)           //PIN=servo pin no. on mega,vAl=angle F_CPU for the servo at pin
  {
    vAl=constraint(mapAngle(vAl,0,200,iCr/39,iCr/8.3),iCr/40,iCr/8);
    22f0:	a0 90 c8 02 	lds	r10, 0x02C8
    22f4:	b0 90 c9 02 	lds	r11, 0x02C9
    22f8:	c5 01       	movw	r24, r10
    22fa:	67 e2       	ldi	r22, 0x27	; 39
    22fc:	70 e0       	ldi	r23, 0x00	; 0
    22fe:	0e 94 48 1a 	call	0x3490	; 0x3490 <__divmodhi4>
    2302:	6b 01       	movw	r12, r22
    2304:	ee 24       	eor	r14, r14
    2306:	d7 fc       	sbrc	r13, 7
    2308:	e0 94       	com	r14
    230a:	fe 2c       	mov	r15, r14
    230c:	b5 01       	movw	r22, r10
    230e:	88 27       	eor	r24, r24
    2310:	77 fd       	sbrc	r23, 7
    2312:	80 95       	com	r24
    2314:	98 2f       	mov	r25, r24
    2316:	0e 94 3a 19 	call	0x3274	; 0x3274 <__floatsisf>
    231a:	2d ec       	ldi	r18, 0xCD	; 205
    231c:	3c ec       	ldi	r19, 0xCC	; 204
    231e:	44 e0       	ldi	r20, 0x04	; 4
    2320:	51 e4       	ldi	r21, 0x41	; 65
    2322:	0e 94 9f 18 	call	0x313e	; 0x313e <__divsf3>
    2326:	0e 94 07 19 	call	0x320e	; 0x320e <__fixsfsi>
        break; 
    }   
  }
  long mapAngle(long x, long in_min, long in_max, long out_min, long out_max)
  {
    return (x - in_min) * (out_max - out_min) / (in_max - in_min) + out_min;
    232a:	6c 19       	sub	r22, r12
    232c:	7d 09       	sbc	r23, r13
    232e:	8e 09       	sbc	r24, r14
    2330:	9f 09       	sbc	r25, r15
	swerve1.write(angle+correction[0]);
    2332:	20 91 b4 02 	lds	r18, 0x02B4
    2336:	30 91 b5 02 	lds	r19, 0x02B5
    233a:	28 58       	subi	r18, 0x88	; 136
    233c:	3f 4f       	sbci	r19, 0xFF	; 255
     }
  }

  void write(int vAl)           //PIN=servo pin no. on mega,vAl=angle F_CPU for the servo at pin
  {
    vAl=constraint(mapAngle(vAl,0,200,iCr/39,iCr/8.3),iCr/40,iCr/8);
    233e:	44 27       	eor	r20, r20
    2340:	37 fd       	sbrc	r19, 7
    2342:	40 95       	com	r20
    2344:	54 2f       	mov	r21, r20
        break; 
    }   
  }
  long mapAngle(long x, long in_min, long in_max, long out_min, long out_max)
  {
    return (x - in_min) * (out_max - out_min) / (in_max - in_min) + out_min;
    2346:	0e 94 29 1a 	call	0x3452	; 0x3452 <__mulsi3>
    234a:	28 ec       	ldi	r18, 0xC8	; 200
    234c:	30 e0       	ldi	r19, 0x00	; 0
    234e:	40 e0       	ldi	r20, 0x00	; 0
    2350:	50 e0       	ldi	r21, 0x00	; 0
    2352:	0e 94 5b 1a 	call	0x34b6	; 0x34b6 <__divmodsi4>
    2356:	89 01       	movw	r16, r18
    2358:	9a 01       	movw	r18, r20
    235a:	0c 0d       	add	r16, r12
    235c:	1d 1d       	adc	r17, r13
    235e:	2e 1d       	adc	r18, r14
    2360:	3f 1d       	adc	r19, r15
     }
  }

  void write(int vAl)           //PIN=servo pin no. on mega,vAl=angle F_CPU for the servo at pin
  {
    vAl=constraint(mapAngle(vAl,0,200,iCr/39,iCr/8.3),iCr/40,iCr/8);
    2362:	c5 01       	movw	r24, r10
    2364:	bb 20       	and	r11, r11
    2366:	0c f4       	brge	.+2      	; 0x236a <__stack+0x16b>
    2368:	07 96       	adiw	r24, 0x07	; 7
    236a:	95 95       	asr	r25
    236c:	87 95       	ror	r24
    236e:	95 95       	asr	r25
    2370:	87 95       	ror	r24
    2372:	95 95       	asr	r25
    2374:	87 95       	ror	r24
    2376:	aa 27       	eor	r26, r26
    2378:	97 fd       	sbrc	r25, 7
    237a:	a0 95       	com	r26
    237c:	ba 2f       	mov	r27, r26
  {
    return (x - in_min) * (out_max - out_min) / (in_max - in_min) + out_min;
  }
  long constraint(long nUm,long lOwer,long uPper)
  {
    if(nUm>uPper){
    237e:	80 17       	cp	r24, r16
    2380:	91 07       	cpc	r25, r17
    2382:	a2 07       	cpc	r26, r18
    2384:	b3 07       	cpc	r27, r19
    2386:	a4 f0       	brlt	.+40     	; 0x23b0 <__stack+0x1b1>
     }
  }

  void write(int vAl)           //PIN=servo pin no. on mega,vAl=angle F_CPU for the servo at pin
  {
    vAl=constraint(mapAngle(vAl,0,200,iCr/39,iCr/8.3),iCr/40,iCr/8);
    2388:	c5 01       	movw	r24, r10
    238a:	68 e2       	ldi	r22, 0x28	; 40
    238c:	70 e0       	ldi	r23, 0x00	; 0
    238e:	0e 94 48 1a 	call	0x3490	; 0x3490 <__divmodhi4>
    2392:	cb 01       	movw	r24, r22
    2394:	ac 01       	movw	r20, r24
    2396:	66 27       	eor	r22, r22
    2398:	57 fd       	sbrc	r21, 7
    239a:	60 95       	com	r22
    239c:	76 2f       	mov	r23, r22
    239e:	d9 01       	movw	r26, r18
    23a0:	c8 01       	movw	r24, r16
    23a2:	04 17       	cp	r16, r20
    23a4:	15 07       	cpc	r17, r21
    23a6:	26 07       	cpc	r18, r22
    23a8:	37 07       	cpc	r19, r23
    23aa:	14 f4       	brge	.+4      	; 0x23b0 <__stack+0x1b1>
    23ac:	db 01       	movw	r26, r22
    23ae:	ca 01       	movw	r24, r20
    switch(pIn)
    23b0:	20 91 ca 02 	lds	r18, 0x02CA
    23b4:	28 30       	cpi	r18, 0x08	; 8
    23b6:	09 f4       	brne	.+2      	; 0x23ba <__stack+0x1bb>
    23b8:	7a c0       	rjmp	.+244    	; 0x24ae <__stack+0x2af>
    23ba:	29 30       	cpi	r18, 0x09	; 9
    23bc:	90 f4       	brcc	.+36     	; 0x23e2 <__stack+0x1e3>
    23be:	25 30       	cpi	r18, 0x05	; 5
    23c0:	d1 f1       	breq	.+116    	; 0x2436 <__stack+0x237>
    23c2:	26 30       	cpi	r18, 0x06	; 6
    23c4:	38 f4       	brcc	.+14     	; 0x23d4 <__stack+0x1d5>
    23c6:	22 30       	cpi	r18, 0x02	; 2
    23c8:	09 f4       	brne	.+2      	; 0x23cc <__stack+0x1cd>
    23ca:	41 c0       	rjmp	.+130    	; 0x244e <__stack+0x24f>
    23cc:	23 30       	cpi	r18, 0x03	; 3
    23ce:	09 f0       	breq	.+2      	; 0x23d2 <__stack+0x1d3>
    23d0:	9d c0       	rjmp	.+314    	; 0x250c <__stack+0x30d>
    23d2:	49 c0       	rjmp	.+146    	; 0x2466 <__stack+0x267>
    23d4:	26 30       	cpi	r18, 0x06	; 6
    23d6:	09 f4       	brne	.+2      	; 0x23da <__stack+0x1db>
    23d8:	52 c0       	rjmp	.+164    	; 0x247e <__stack+0x27f>
    23da:	27 30       	cpi	r18, 0x07	; 7
    23dc:	09 f0       	breq	.+2      	; 0x23e0 <__stack+0x1e1>
    23de:	96 c0       	rjmp	.+300    	; 0x250c <__stack+0x30d>
    23e0:	5a c0       	rjmp	.+180    	; 0x2496 <__stack+0x297>
    23e2:	2c 32       	cpi	r18, 0x2C	; 44
    23e4:	09 f4       	brne	.+2      	; 0x23e8 <__stack+0x1e9>
    23e6:	87 c0       	rjmp	.+270    	; 0x24f6 <__stack+0x2f7>
    23e8:	2d 32       	cpi	r18, 0x2D	; 45
    23ea:	30 f4       	brcc	.+12     	; 0x23f8 <__stack+0x1f9>
    23ec:	2b 30       	cpi	r18, 0x0B	; 11
    23ee:	59 f0       	breq	.+22     	; 0x2406 <__stack+0x207>
    23f0:	2c 30       	cpi	r18, 0x0C	; 12
    23f2:	09 f0       	breq	.+2      	; 0x23f6 <__stack+0x1f7>
    23f4:	8b c0       	rjmp	.+278    	; 0x250c <__stack+0x30d>
    23f6:	13 c0       	rjmp	.+38     	; 0x241e <__stack+0x21f>
    23f8:	2d 32       	cpi	r18, 0x2D	; 45
    23fa:	09 f4       	brne	.+2      	; 0x23fe <__stack+0x1ff>
    23fc:	70 c0       	rjmp	.+224    	; 0x24de <__stack+0x2df>
    23fe:	2e 32       	cpi	r18, 0x2E	; 46
    2400:	09 f0       	breq	.+2      	; 0x2404 <__stack+0x205>
    2402:	84 c0       	rjmp	.+264    	; 0x250c <__stack+0x30d>
    2404:	60 c0       	rjmp	.+192    	; 0x24c6 <__stack+0x2c7>
    {
      case 11:
        OCR1A=ICR1-vAl;
    2406:	20 91 86 00 	lds	r18, 0x0086
    240a:	30 91 87 00 	lds	r19, 0x0087
    240e:	f9 01       	movw	r30, r18
    2410:	e8 1b       	sub	r30, r24
    2412:	f9 0b       	sbc	r31, r25
    2414:	f0 93 89 00 	sts	0x0089, r31
    2418:	e0 93 88 00 	sts	0x0088, r30
    241c:	77 c0       	rjmp	.+238    	; 0x250c <__stack+0x30d>
        break;
      case 12:
        OCR1B=ICR1-vAl;
    241e:	20 91 86 00 	lds	r18, 0x0086
    2422:	30 91 87 00 	lds	r19, 0x0087
    2426:	a9 01       	movw	r20, r18
    2428:	48 1b       	sub	r20, r24
    242a:	59 0b       	sbc	r21, r25
    242c:	50 93 8b 00 	sts	0x008B, r21
    2430:	40 93 8a 00 	sts	0x008A, r20
    2434:	6b c0       	rjmp	.+214    	; 0x250c <__stack+0x30d>
        break;
      case 5:
        OCR3A=ICR3-vAl;
    2436:	20 91 96 00 	lds	r18, 0x0096
    243a:	30 91 97 00 	lds	r19, 0x0097
    243e:	f9 01       	movw	r30, r18
    2440:	e8 1b       	sub	r30, r24
    2442:	f9 0b       	sbc	r31, r25
    2444:	f0 93 99 00 	sts	0x0099, r31
    2448:	e0 93 98 00 	sts	0x0098, r30
    244c:	5f c0       	rjmp	.+190    	; 0x250c <__stack+0x30d>
        break;
      case 2:
        OCR3B=ICR3-vAl;
    244e:	20 91 96 00 	lds	r18, 0x0096
    2452:	30 91 97 00 	lds	r19, 0x0097
    2456:	a9 01       	movw	r20, r18
    2458:	48 1b       	sub	r20, r24
    245a:	59 0b       	sbc	r21, r25
    245c:	50 93 9b 00 	sts	0x009B, r21
    2460:	40 93 9a 00 	sts	0x009A, r20
    2464:	53 c0       	rjmp	.+166    	; 0x250c <__stack+0x30d>
        break;
      case 3:
        OCR3C=ICR3-vAl;
    2466:	20 91 96 00 	lds	r18, 0x0096
    246a:	30 91 97 00 	lds	r19, 0x0097
    246e:	f9 01       	movw	r30, r18
    2470:	e8 1b       	sub	r30, r24
    2472:	f9 0b       	sbc	r31, r25
    2474:	f0 93 9d 00 	sts	0x009D, r31
    2478:	e0 93 9c 00 	sts	0x009C, r30
    247c:	47 c0       	rjmp	.+142    	; 0x250c <__stack+0x30d>
        break;
      case 6:
        OCR4A=ICR4-vAl;
    247e:	20 91 a6 00 	lds	r18, 0x00A6
    2482:	30 91 a7 00 	lds	r19, 0x00A7
    2486:	a9 01       	movw	r20, r18
    2488:	48 1b       	sub	r20, r24
    248a:	59 0b       	sbc	r21, r25
    248c:	50 93 a9 00 	sts	0x00A9, r21
    2490:	40 93 a8 00 	sts	0x00A8, r20
    2494:	3b c0       	rjmp	.+118    	; 0x250c <__stack+0x30d>
        break;
      case 7:
        OCR4B=ICR4-vAl;
    2496:	20 91 a6 00 	lds	r18, 0x00A6
    249a:	30 91 a7 00 	lds	r19, 0x00A7
    249e:	f9 01       	movw	r30, r18
    24a0:	e8 1b       	sub	r30, r24
    24a2:	f9 0b       	sbc	r31, r25
    24a4:	f0 93 ab 00 	sts	0x00AB, r31
    24a8:	e0 93 aa 00 	sts	0x00AA, r30
    24ac:	2f c0       	rjmp	.+94     	; 0x250c <__stack+0x30d>
        break; 
      case 8:
        OCR4C=ICR4-vAl;
    24ae:	20 91 a6 00 	lds	r18, 0x00A6
    24b2:	30 91 a7 00 	lds	r19, 0x00A7
    24b6:	a9 01       	movw	r20, r18
    24b8:	48 1b       	sub	r20, r24
    24ba:	59 0b       	sbc	r21, r25
    24bc:	50 93 ad 00 	sts	0x00AD, r21
    24c0:	40 93 ac 00 	sts	0x00AC, r20
    24c4:	23 c0       	rjmp	.+70     	; 0x250c <__stack+0x30d>
        break;
      case 46:
        OCR5A=ICR5-vAl;
    24c6:	20 91 26 01 	lds	r18, 0x0126
    24ca:	30 91 27 01 	lds	r19, 0x0127
    24ce:	f9 01       	movw	r30, r18
    24d0:	e8 1b       	sub	r30, r24
    24d2:	f9 0b       	sbc	r31, r25
    24d4:	f0 93 29 01 	sts	0x0129, r31
    24d8:	e0 93 28 01 	sts	0x0128, r30
    24dc:	17 c0       	rjmp	.+46     	; 0x250c <__stack+0x30d>
        break;
      case 45:
        OCR5B=ICR5-vAl;
    24de:	20 91 26 01 	lds	r18, 0x0126
    24e2:	30 91 27 01 	lds	r19, 0x0127
    24e6:	a9 01       	movw	r20, r18
    24e8:	48 1b       	sub	r20, r24
    24ea:	59 0b       	sbc	r21, r25
    24ec:	50 93 2b 01 	sts	0x012B, r21
    24f0:	40 93 2a 01 	sts	0x012A, r20
    24f4:	0b c0       	rjmp	.+22     	; 0x250c <__stack+0x30d>
        break;
      case 44:
        OCR5C=ICR5-vAl;
    24f6:	20 91 26 01 	lds	r18, 0x0126
    24fa:	30 91 27 01 	lds	r19, 0x0127
    24fe:	f9 01       	movw	r30, r18
    2500:	e8 1b       	sub	r30, r24
    2502:	f9 0b       	sbc	r31, r25
    2504:	f0 93 2d 01 	sts	0x012D, r31
    2508:	e0 93 2c 01 	sts	0x012C, r30
     }
  }

  void write(int vAl)           //PIN=servo pin no. on mega,vAl=angle F_CPU for the servo at pin
  {
    vAl=constraint(mapAngle(vAl,0,200,iCr/39,iCr/8.3),iCr/40,iCr/8);
    250c:	a0 90 cb 02 	lds	r10, 0x02CB
    2510:	b0 90 cc 02 	lds	r11, 0x02CC
    2514:	c5 01       	movw	r24, r10
    2516:	67 e2       	ldi	r22, 0x27	; 39
    2518:	70 e0       	ldi	r23, 0x00	; 0
    251a:	0e 94 48 1a 	call	0x3490	; 0x3490 <__divmodhi4>
    251e:	6b 01       	movw	r12, r22
    2520:	ee 24       	eor	r14, r14
    2522:	d7 fc       	sbrc	r13, 7
    2524:	e0 94       	com	r14
    2526:	fe 2c       	mov	r15, r14
    2528:	b5 01       	movw	r22, r10
    252a:	88 27       	eor	r24, r24
    252c:	77 fd       	sbrc	r23, 7
    252e:	80 95       	com	r24
    2530:	98 2f       	mov	r25, r24
    2532:	0e 94 3a 19 	call	0x3274	; 0x3274 <__floatsisf>
    2536:	2d ec       	ldi	r18, 0xCD	; 205
    2538:	3c ec       	ldi	r19, 0xCC	; 204
    253a:	44 e0       	ldi	r20, 0x04	; 4
    253c:	51 e4       	ldi	r21, 0x41	; 65
    253e:	0e 94 9f 18 	call	0x313e	; 0x313e <__divsf3>
    2542:	0e 94 07 19 	call	0x320e	; 0x320e <__fixsfsi>
        break; 
    }   
  }
  long mapAngle(long x, long in_min, long in_max, long out_min, long out_max)
  {
    return (x - in_min) * (out_max - out_min) / (in_max - in_min) + out_min;
    2546:	6c 19       	sub	r22, r12
    2548:	7d 09       	sbc	r23, r13
    254a:	8e 09       	sbc	r24, r14
    254c:	9f 09       	sbc	r25, r15
	swerve2.write(angle+correction[1]);
    254e:	40 91 bc 02 	lds	r20, 0x02BC
    2552:	50 91 bd 02 	lds	r21, 0x02BD
    2556:	20 91 b6 02 	lds	r18, 0x02B6
    255a:	30 91 b7 02 	lds	r19, 0x02B7
    255e:	24 0f       	add	r18, r20
    2560:	35 1f       	adc	r19, r21
     }
  }

  void write(int vAl)           //PIN=servo pin no. on mega,vAl=angle F_CPU for the servo at pin
  {
    vAl=constraint(mapAngle(vAl,0,200,iCr/39,iCr/8.3),iCr/40,iCr/8);
    2562:	44 27       	eor	r20, r20
    2564:	37 fd       	sbrc	r19, 7
    2566:	40 95       	com	r20
    2568:	54 2f       	mov	r21, r20
        break; 
    }   
  }
  long mapAngle(long x, long in_min, long in_max, long out_min, long out_max)
  {
    return (x - in_min) * (out_max - out_min) / (in_max - in_min) + out_min;
    256a:	0e 94 29 1a 	call	0x3452	; 0x3452 <__mulsi3>
    256e:	28 ec       	ldi	r18, 0xC8	; 200
    2570:	30 e0       	ldi	r19, 0x00	; 0
    2572:	40 e0       	ldi	r20, 0x00	; 0
    2574:	50 e0       	ldi	r21, 0x00	; 0
    2576:	0e 94 5b 1a 	call	0x34b6	; 0x34b6 <__divmodsi4>
    257a:	89 01       	movw	r16, r18
    257c:	9a 01       	movw	r18, r20
    257e:	0c 0d       	add	r16, r12
    2580:	1d 1d       	adc	r17, r13
    2582:	2e 1d       	adc	r18, r14
    2584:	3f 1d       	adc	r19, r15
     }
  }

  void write(int vAl)           //PIN=servo pin no. on mega,vAl=angle F_CPU for the servo at pin
  {
    vAl=constraint(mapAngle(vAl,0,200,iCr/39,iCr/8.3),iCr/40,iCr/8);
    2586:	c5 01       	movw	r24, r10
    2588:	bb 20       	and	r11, r11
    258a:	0c f4       	brge	.+2      	; 0x258e <__stack+0x38f>
    258c:	07 96       	adiw	r24, 0x07	; 7
    258e:	95 95       	asr	r25
    2590:	87 95       	ror	r24
    2592:	95 95       	asr	r25
    2594:	87 95       	ror	r24
    2596:	95 95       	asr	r25
    2598:	87 95       	ror	r24
    259a:	aa 27       	eor	r26, r26
    259c:	97 fd       	sbrc	r25, 7
    259e:	a0 95       	com	r26
    25a0:	ba 2f       	mov	r27, r26
  {
    return (x - in_min) * (out_max - out_min) / (in_max - in_min) + out_min;
  }
  long constraint(long nUm,long lOwer,long uPper)
  {
    if(nUm>uPper){
    25a2:	80 17       	cp	r24, r16
    25a4:	91 07       	cpc	r25, r17
    25a6:	a2 07       	cpc	r26, r18
    25a8:	b3 07       	cpc	r27, r19
    25aa:	a4 f0       	brlt	.+40     	; 0x25d4 <__stack+0x3d5>
     }
  }

  void write(int vAl)           //PIN=servo pin no. on mega,vAl=angle F_CPU for the servo at pin
  {
    vAl=constraint(mapAngle(vAl,0,200,iCr/39,iCr/8.3),iCr/40,iCr/8);
    25ac:	c5 01       	movw	r24, r10
    25ae:	68 e2       	ldi	r22, 0x28	; 40
    25b0:	70 e0       	ldi	r23, 0x00	; 0
    25b2:	0e 94 48 1a 	call	0x3490	; 0x3490 <__divmodhi4>
    25b6:	cb 01       	movw	r24, r22
    25b8:	ac 01       	movw	r20, r24
    25ba:	66 27       	eor	r22, r22
    25bc:	57 fd       	sbrc	r21, 7
    25be:	60 95       	com	r22
    25c0:	76 2f       	mov	r23, r22
    25c2:	d9 01       	movw	r26, r18
    25c4:	c8 01       	movw	r24, r16
    25c6:	04 17       	cp	r16, r20
    25c8:	15 07       	cpc	r17, r21
    25ca:	26 07       	cpc	r18, r22
    25cc:	37 07       	cpc	r19, r23
    25ce:	14 f4       	brge	.+4      	; 0x25d4 <__stack+0x3d5>
    25d0:	db 01       	movw	r26, r22
    25d2:	ca 01       	movw	r24, r20
    switch(pIn)
    25d4:	20 91 cd 02 	lds	r18, 0x02CD
    25d8:	28 30       	cpi	r18, 0x08	; 8
    25da:	09 f4       	brne	.+2      	; 0x25de <__stack+0x3df>
    25dc:	7a c0       	rjmp	.+244    	; 0x26d2 <__stack+0x4d3>
    25de:	29 30       	cpi	r18, 0x09	; 9
    25e0:	90 f4       	brcc	.+36     	; 0x2606 <__stack+0x407>
    25e2:	25 30       	cpi	r18, 0x05	; 5
    25e4:	d1 f1       	breq	.+116    	; 0x265a <__stack+0x45b>
    25e6:	26 30       	cpi	r18, 0x06	; 6
    25e8:	38 f4       	brcc	.+14     	; 0x25f8 <__stack+0x3f9>
    25ea:	22 30       	cpi	r18, 0x02	; 2
    25ec:	09 f4       	brne	.+2      	; 0x25f0 <__stack+0x3f1>
    25ee:	41 c0       	rjmp	.+130    	; 0x2672 <__stack+0x473>
    25f0:	23 30       	cpi	r18, 0x03	; 3
    25f2:	09 f0       	breq	.+2      	; 0x25f6 <__stack+0x3f7>
    25f4:	9d c0       	rjmp	.+314    	; 0x2730 <__stack+0x531>
    25f6:	49 c0       	rjmp	.+146    	; 0x268a <__stack+0x48b>
    25f8:	26 30       	cpi	r18, 0x06	; 6
    25fa:	09 f4       	brne	.+2      	; 0x25fe <__stack+0x3ff>
    25fc:	52 c0       	rjmp	.+164    	; 0x26a2 <__stack+0x4a3>
    25fe:	27 30       	cpi	r18, 0x07	; 7
    2600:	09 f0       	breq	.+2      	; 0x2604 <__stack+0x405>
    2602:	96 c0       	rjmp	.+300    	; 0x2730 <__stack+0x531>
    2604:	5a c0       	rjmp	.+180    	; 0x26ba <__stack+0x4bb>
    2606:	2c 32       	cpi	r18, 0x2C	; 44
    2608:	09 f4       	brne	.+2      	; 0x260c <__stack+0x40d>
    260a:	87 c0       	rjmp	.+270    	; 0x271a <__stack+0x51b>
    260c:	2d 32       	cpi	r18, 0x2D	; 45
    260e:	30 f4       	brcc	.+12     	; 0x261c <__stack+0x41d>
    2610:	2b 30       	cpi	r18, 0x0B	; 11
    2612:	59 f0       	breq	.+22     	; 0x262a <__stack+0x42b>
    2614:	2c 30       	cpi	r18, 0x0C	; 12
    2616:	09 f0       	breq	.+2      	; 0x261a <__stack+0x41b>
    2618:	8b c0       	rjmp	.+278    	; 0x2730 <__stack+0x531>
    261a:	13 c0       	rjmp	.+38     	; 0x2642 <__stack+0x443>
    261c:	2d 32       	cpi	r18, 0x2D	; 45
    261e:	09 f4       	brne	.+2      	; 0x2622 <__stack+0x423>
    2620:	70 c0       	rjmp	.+224    	; 0x2702 <__stack+0x503>
    2622:	2e 32       	cpi	r18, 0x2E	; 46
    2624:	09 f0       	breq	.+2      	; 0x2628 <__stack+0x429>
    2626:	84 c0       	rjmp	.+264    	; 0x2730 <__stack+0x531>
    2628:	60 c0       	rjmp	.+192    	; 0x26ea <__stack+0x4eb>
    {
      case 11:
        OCR1A=ICR1-vAl;
    262a:	20 91 86 00 	lds	r18, 0x0086
    262e:	30 91 87 00 	lds	r19, 0x0087
    2632:	f9 01       	movw	r30, r18
    2634:	e8 1b       	sub	r30, r24
    2636:	f9 0b       	sbc	r31, r25
    2638:	f0 93 89 00 	sts	0x0089, r31
    263c:	e0 93 88 00 	sts	0x0088, r30
    2640:	77 c0       	rjmp	.+238    	; 0x2730 <__stack+0x531>
        break;
      case 12:
        OCR1B=ICR1-vAl;
    2642:	20 91 86 00 	lds	r18, 0x0086
    2646:	30 91 87 00 	lds	r19, 0x0087
    264a:	a9 01       	movw	r20, r18
    264c:	48 1b       	sub	r20, r24
    264e:	59 0b       	sbc	r21, r25
    2650:	50 93 8b 00 	sts	0x008B, r21
    2654:	40 93 8a 00 	sts	0x008A, r20
    2658:	6b c0       	rjmp	.+214    	; 0x2730 <__stack+0x531>
        break;
      case 5:
        OCR3A=ICR3-vAl;
    265a:	20 91 96 00 	lds	r18, 0x0096
    265e:	30 91 97 00 	lds	r19, 0x0097
    2662:	f9 01       	movw	r30, r18
    2664:	e8 1b       	sub	r30, r24
    2666:	f9 0b       	sbc	r31, r25
    2668:	f0 93 99 00 	sts	0x0099, r31
    266c:	e0 93 98 00 	sts	0x0098, r30
    2670:	5f c0       	rjmp	.+190    	; 0x2730 <__stack+0x531>
        break;
      case 2:
        OCR3B=ICR3-vAl;
    2672:	20 91 96 00 	lds	r18, 0x0096
    2676:	30 91 97 00 	lds	r19, 0x0097
    267a:	a9 01       	movw	r20, r18
    267c:	48 1b       	sub	r20, r24
    267e:	59 0b       	sbc	r21, r25
    2680:	50 93 9b 00 	sts	0x009B, r21
    2684:	40 93 9a 00 	sts	0x009A, r20
    2688:	53 c0       	rjmp	.+166    	; 0x2730 <__stack+0x531>
        break;
      case 3:
        OCR3C=ICR3-vAl;
    268a:	20 91 96 00 	lds	r18, 0x0096
    268e:	30 91 97 00 	lds	r19, 0x0097
    2692:	f9 01       	movw	r30, r18
    2694:	e8 1b       	sub	r30, r24
    2696:	f9 0b       	sbc	r31, r25
    2698:	f0 93 9d 00 	sts	0x009D, r31
    269c:	e0 93 9c 00 	sts	0x009C, r30
    26a0:	47 c0       	rjmp	.+142    	; 0x2730 <__stack+0x531>
        break;
      case 6:
        OCR4A=ICR4-vAl;
    26a2:	20 91 a6 00 	lds	r18, 0x00A6
    26a6:	30 91 a7 00 	lds	r19, 0x00A7
    26aa:	a9 01       	movw	r20, r18
    26ac:	48 1b       	sub	r20, r24
    26ae:	59 0b       	sbc	r21, r25
    26b0:	50 93 a9 00 	sts	0x00A9, r21
    26b4:	40 93 a8 00 	sts	0x00A8, r20
    26b8:	3b c0       	rjmp	.+118    	; 0x2730 <__stack+0x531>
        break;
      case 7:
        OCR4B=ICR4-vAl;
    26ba:	20 91 a6 00 	lds	r18, 0x00A6
    26be:	30 91 a7 00 	lds	r19, 0x00A7
    26c2:	f9 01       	movw	r30, r18
    26c4:	e8 1b       	sub	r30, r24
    26c6:	f9 0b       	sbc	r31, r25
    26c8:	f0 93 ab 00 	sts	0x00AB, r31
    26cc:	e0 93 aa 00 	sts	0x00AA, r30
    26d0:	2f c0       	rjmp	.+94     	; 0x2730 <__stack+0x531>
        break; 
      case 8:
        OCR4C=ICR4-vAl;
    26d2:	20 91 a6 00 	lds	r18, 0x00A6
    26d6:	30 91 a7 00 	lds	r19, 0x00A7
    26da:	a9 01       	movw	r20, r18
    26dc:	48 1b       	sub	r20, r24
    26de:	59 0b       	sbc	r21, r25
    26e0:	50 93 ad 00 	sts	0x00AD, r21
    26e4:	40 93 ac 00 	sts	0x00AC, r20
    26e8:	23 c0       	rjmp	.+70     	; 0x2730 <__stack+0x531>
        break;
      case 46:
        OCR5A=ICR5-vAl;
    26ea:	20 91 26 01 	lds	r18, 0x0126
    26ee:	30 91 27 01 	lds	r19, 0x0127
    26f2:	f9 01       	movw	r30, r18
    26f4:	e8 1b       	sub	r30, r24
    26f6:	f9 0b       	sbc	r31, r25
    26f8:	f0 93 29 01 	sts	0x0129, r31
    26fc:	e0 93 28 01 	sts	0x0128, r30
    2700:	17 c0       	rjmp	.+46     	; 0x2730 <__stack+0x531>
        break;
      case 45:
        OCR5B=ICR5-vAl;
    2702:	20 91 26 01 	lds	r18, 0x0126
    2706:	30 91 27 01 	lds	r19, 0x0127
    270a:	a9 01       	movw	r20, r18
    270c:	48 1b       	sub	r20, r24
    270e:	59 0b       	sbc	r21, r25
    2710:	50 93 2b 01 	sts	0x012B, r21
    2714:	40 93 2a 01 	sts	0x012A, r20
    2718:	0b c0       	rjmp	.+22     	; 0x2730 <__stack+0x531>
        break;
      case 44:
        OCR5C=ICR5-vAl;
    271a:	20 91 26 01 	lds	r18, 0x0126
    271e:	30 91 27 01 	lds	r19, 0x0127
    2722:	f9 01       	movw	r30, r18
    2724:	e8 1b       	sub	r30, r24
    2726:	f9 0b       	sbc	r31, r25
    2728:	f0 93 2d 01 	sts	0x012D, r31
    272c:	e0 93 2c 01 	sts	0x012C, r30
     }
  }

  void write(int vAl)           //PIN=servo pin no. on mega,vAl=angle F_CPU for the servo at pin
  {
    vAl=constraint(mapAngle(vAl,0,200,iCr/39,iCr/8.3),iCr/40,iCr/8);
    2730:	a0 90 ce 02 	lds	r10, 0x02CE
    2734:	b0 90 cf 02 	lds	r11, 0x02CF
    2738:	c5 01       	movw	r24, r10
    273a:	67 e2       	ldi	r22, 0x27	; 39
    273c:	70 e0       	ldi	r23, 0x00	; 0
    273e:	0e 94 48 1a 	call	0x3490	; 0x3490 <__divmodhi4>
    2742:	6b 01       	movw	r12, r22
    2744:	ee 24       	eor	r14, r14
    2746:	d7 fc       	sbrc	r13, 7
    2748:	e0 94       	com	r14
    274a:	fe 2c       	mov	r15, r14
    274c:	b5 01       	movw	r22, r10
    274e:	88 27       	eor	r24, r24
    2750:	77 fd       	sbrc	r23, 7
    2752:	80 95       	com	r24
    2754:	98 2f       	mov	r25, r24
    2756:	0e 94 3a 19 	call	0x3274	; 0x3274 <__floatsisf>
    275a:	2d ec       	ldi	r18, 0xCD	; 205
    275c:	3c ec       	ldi	r19, 0xCC	; 204
    275e:	44 e0       	ldi	r20, 0x04	; 4
    2760:	51 e4       	ldi	r21, 0x41	; 65
    2762:	0e 94 9f 18 	call	0x313e	; 0x313e <__divsf3>
    2766:	0e 94 07 19 	call	0x320e	; 0x320e <__fixsfsi>
        break; 
    }   
  }
  long mapAngle(long x, long in_min, long in_max, long out_min, long out_max)
  {
    return (x - in_min) * (out_max - out_min) / (in_max - in_min) + out_min;
    276a:	6c 19       	sub	r22, r12
    276c:	7d 09       	sbc	r23, r13
    276e:	8e 09       	sbc	r24, r14
    2770:	9f 09       	sbc	r25, r15
	swerve3.write(angle+correction[2]);
    2772:	40 91 bc 02 	lds	r20, 0x02BC
    2776:	50 91 bd 02 	lds	r21, 0x02BD
    277a:	20 91 b8 02 	lds	r18, 0x02B8
    277e:	30 91 b9 02 	lds	r19, 0x02B9
    2782:	24 0f       	add	r18, r20
    2784:	35 1f       	adc	r19, r21
     }
  }

  void write(int vAl)           //PIN=servo pin no. on mega,vAl=angle F_CPU for the servo at pin
  {
    vAl=constraint(mapAngle(vAl,0,200,iCr/39,iCr/8.3),iCr/40,iCr/8);
    2786:	44 27       	eor	r20, r20
    2788:	37 fd       	sbrc	r19, 7
    278a:	40 95       	com	r20
    278c:	54 2f       	mov	r21, r20
        break; 
    }   
  }
  long mapAngle(long x, long in_min, long in_max, long out_min, long out_max)
  {
    return (x - in_min) * (out_max - out_min) / (in_max - in_min) + out_min;
    278e:	0e 94 29 1a 	call	0x3452	; 0x3452 <__mulsi3>
    2792:	28 ec       	ldi	r18, 0xC8	; 200
    2794:	30 e0       	ldi	r19, 0x00	; 0
    2796:	40 e0       	ldi	r20, 0x00	; 0
    2798:	50 e0       	ldi	r21, 0x00	; 0
    279a:	0e 94 5b 1a 	call	0x34b6	; 0x34b6 <__divmodsi4>
    279e:	89 01       	movw	r16, r18
    27a0:	9a 01       	movw	r18, r20
    27a2:	0c 0d       	add	r16, r12
    27a4:	1d 1d       	adc	r17, r13
    27a6:	2e 1d       	adc	r18, r14
    27a8:	3f 1d       	adc	r19, r15
     }
  }

  void write(int vAl)           //PIN=servo pin no. on mega,vAl=angle F_CPU for the servo at pin
  {
    vAl=constraint(mapAngle(vAl,0,200,iCr/39,iCr/8.3),iCr/40,iCr/8);
    27aa:	c5 01       	movw	r24, r10
    27ac:	bb 20       	and	r11, r11
    27ae:	0c f4       	brge	.+2      	; 0x27b2 <__stack+0x5b3>
    27b0:	07 96       	adiw	r24, 0x07	; 7
    27b2:	95 95       	asr	r25
    27b4:	87 95       	ror	r24
    27b6:	95 95       	asr	r25
    27b8:	87 95       	ror	r24
    27ba:	95 95       	asr	r25
    27bc:	87 95       	ror	r24
    27be:	aa 27       	eor	r26, r26
    27c0:	97 fd       	sbrc	r25, 7
    27c2:	a0 95       	com	r26
    27c4:	ba 2f       	mov	r27, r26
  {
    return (x - in_min) * (out_max - out_min) / (in_max - in_min) + out_min;
  }
  long constraint(long nUm,long lOwer,long uPper)
  {
    if(nUm>uPper){
    27c6:	80 17       	cp	r24, r16
    27c8:	91 07       	cpc	r25, r17
    27ca:	a2 07       	cpc	r26, r18
    27cc:	b3 07       	cpc	r27, r19
    27ce:	a4 f0       	brlt	.+40     	; 0x27f8 <__stack+0x5f9>
     }
  }

  void write(int vAl)           //PIN=servo pin no. on mega,vAl=angle F_CPU for the servo at pin
  {
    vAl=constraint(mapAngle(vAl,0,200,iCr/39,iCr/8.3),iCr/40,iCr/8);
    27d0:	c5 01       	movw	r24, r10
    27d2:	68 e2       	ldi	r22, 0x28	; 40
    27d4:	70 e0       	ldi	r23, 0x00	; 0
    27d6:	0e 94 48 1a 	call	0x3490	; 0x3490 <__divmodhi4>
    27da:	cb 01       	movw	r24, r22
    27dc:	ac 01       	movw	r20, r24
    27de:	66 27       	eor	r22, r22
    27e0:	57 fd       	sbrc	r21, 7
    27e2:	60 95       	com	r22
    27e4:	76 2f       	mov	r23, r22
    27e6:	d9 01       	movw	r26, r18
    27e8:	c8 01       	movw	r24, r16
    27ea:	04 17       	cp	r16, r20
    27ec:	15 07       	cpc	r17, r21
    27ee:	26 07       	cpc	r18, r22
    27f0:	37 07       	cpc	r19, r23
    27f2:	14 f4       	brge	.+4      	; 0x27f8 <__stack+0x5f9>
    27f4:	db 01       	movw	r26, r22
    27f6:	ca 01       	movw	r24, r20
    switch(pIn)
    27f8:	20 91 d0 02 	lds	r18, 0x02D0
    27fc:	28 30       	cpi	r18, 0x08	; 8
    27fe:	09 f4       	brne	.+2      	; 0x2802 <__stack+0x603>
    2800:	7a c0       	rjmp	.+244    	; 0x28f6 <__stack+0x6f7>
    2802:	29 30       	cpi	r18, 0x09	; 9
    2804:	90 f4       	brcc	.+36     	; 0x282a <__stack+0x62b>
    2806:	25 30       	cpi	r18, 0x05	; 5
    2808:	d1 f1       	breq	.+116    	; 0x287e <__stack+0x67f>
    280a:	26 30       	cpi	r18, 0x06	; 6
    280c:	38 f4       	brcc	.+14     	; 0x281c <__stack+0x61d>
    280e:	22 30       	cpi	r18, 0x02	; 2
    2810:	09 f4       	brne	.+2      	; 0x2814 <__stack+0x615>
    2812:	41 c0       	rjmp	.+130    	; 0x2896 <__stack+0x697>
    2814:	23 30       	cpi	r18, 0x03	; 3
    2816:	09 f0       	breq	.+2      	; 0x281a <__stack+0x61b>
    2818:	9d c0       	rjmp	.+314    	; 0x2954 <__stack+0x755>
    281a:	49 c0       	rjmp	.+146    	; 0x28ae <__stack+0x6af>
    281c:	26 30       	cpi	r18, 0x06	; 6
    281e:	09 f4       	brne	.+2      	; 0x2822 <__stack+0x623>
    2820:	52 c0       	rjmp	.+164    	; 0x28c6 <__stack+0x6c7>
    2822:	27 30       	cpi	r18, 0x07	; 7
    2824:	09 f0       	breq	.+2      	; 0x2828 <__stack+0x629>
    2826:	96 c0       	rjmp	.+300    	; 0x2954 <__stack+0x755>
    2828:	5a c0       	rjmp	.+180    	; 0x28de <__stack+0x6df>
    282a:	2c 32       	cpi	r18, 0x2C	; 44
    282c:	09 f4       	brne	.+2      	; 0x2830 <__stack+0x631>
    282e:	87 c0       	rjmp	.+270    	; 0x293e <__stack+0x73f>
    2830:	2d 32       	cpi	r18, 0x2D	; 45
    2832:	30 f4       	brcc	.+12     	; 0x2840 <__stack+0x641>
    2834:	2b 30       	cpi	r18, 0x0B	; 11
    2836:	59 f0       	breq	.+22     	; 0x284e <__stack+0x64f>
    2838:	2c 30       	cpi	r18, 0x0C	; 12
    283a:	09 f0       	breq	.+2      	; 0x283e <__stack+0x63f>
    283c:	8b c0       	rjmp	.+278    	; 0x2954 <__stack+0x755>
    283e:	13 c0       	rjmp	.+38     	; 0x2866 <__stack+0x667>
    2840:	2d 32       	cpi	r18, 0x2D	; 45
    2842:	09 f4       	brne	.+2      	; 0x2846 <__stack+0x647>
    2844:	70 c0       	rjmp	.+224    	; 0x2926 <__stack+0x727>
    2846:	2e 32       	cpi	r18, 0x2E	; 46
    2848:	09 f0       	breq	.+2      	; 0x284c <__stack+0x64d>
    284a:	84 c0       	rjmp	.+264    	; 0x2954 <__stack+0x755>
    284c:	60 c0       	rjmp	.+192    	; 0x290e <__stack+0x70f>
    {
      case 11:
        OCR1A=ICR1-vAl;
    284e:	20 91 86 00 	lds	r18, 0x0086
    2852:	30 91 87 00 	lds	r19, 0x0087
    2856:	f9 01       	movw	r30, r18
    2858:	e8 1b       	sub	r30, r24
    285a:	f9 0b       	sbc	r31, r25
    285c:	f0 93 89 00 	sts	0x0089, r31
    2860:	e0 93 88 00 	sts	0x0088, r30
    2864:	77 c0       	rjmp	.+238    	; 0x2954 <__stack+0x755>
        break;
      case 12:
        OCR1B=ICR1-vAl;
    2866:	20 91 86 00 	lds	r18, 0x0086
    286a:	30 91 87 00 	lds	r19, 0x0087
    286e:	a9 01       	movw	r20, r18
    2870:	48 1b       	sub	r20, r24
    2872:	59 0b       	sbc	r21, r25
    2874:	50 93 8b 00 	sts	0x008B, r21
    2878:	40 93 8a 00 	sts	0x008A, r20
    287c:	6b c0       	rjmp	.+214    	; 0x2954 <__stack+0x755>
        break;
      case 5:
        OCR3A=ICR3-vAl;
    287e:	20 91 96 00 	lds	r18, 0x0096
    2882:	30 91 97 00 	lds	r19, 0x0097
    2886:	f9 01       	movw	r30, r18
    2888:	e8 1b       	sub	r30, r24
    288a:	f9 0b       	sbc	r31, r25
    288c:	f0 93 99 00 	sts	0x0099, r31
    2890:	e0 93 98 00 	sts	0x0098, r30
    2894:	5f c0       	rjmp	.+190    	; 0x2954 <__stack+0x755>
        break;
      case 2:
        OCR3B=ICR3-vAl;
    2896:	20 91 96 00 	lds	r18, 0x0096
    289a:	30 91 97 00 	lds	r19, 0x0097
    289e:	a9 01       	movw	r20, r18
    28a0:	48 1b       	sub	r20, r24
    28a2:	59 0b       	sbc	r21, r25
    28a4:	50 93 9b 00 	sts	0x009B, r21
    28a8:	40 93 9a 00 	sts	0x009A, r20
    28ac:	53 c0       	rjmp	.+166    	; 0x2954 <__stack+0x755>
        break;
      case 3:
        OCR3C=ICR3-vAl;
    28ae:	20 91 96 00 	lds	r18, 0x0096
    28b2:	30 91 97 00 	lds	r19, 0x0097
    28b6:	f9 01       	movw	r30, r18
    28b8:	e8 1b       	sub	r30, r24
    28ba:	f9 0b       	sbc	r31, r25
    28bc:	f0 93 9d 00 	sts	0x009D, r31
    28c0:	e0 93 9c 00 	sts	0x009C, r30
    28c4:	47 c0       	rjmp	.+142    	; 0x2954 <__stack+0x755>
        break;
      case 6:
        OCR4A=ICR4-vAl;
    28c6:	20 91 a6 00 	lds	r18, 0x00A6
    28ca:	30 91 a7 00 	lds	r19, 0x00A7
    28ce:	a9 01       	movw	r20, r18
    28d0:	48 1b       	sub	r20, r24
    28d2:	59 0b       	sbc	r21, r25
    28d4:	50 93 a9 00 	sts	0x00A9, r21
    28d8:	40 93 a8 00 	sts	0x00A8, r20
    28dc:	3b c0       	rjmp	.+118    	; 0x2954 <__stack+0x755>
        break;
      case 7:
        OCR4B=ICR4-vAl;
    28de:	20 91 a6 00 	lds	r18, 0x00A6
    28e2:	30 91 a7 00 	lds	r19, 0x00A7
    28e6:	f9 01       	movw	r30, r18
    28e8:	e8 1b       	sub	r30, r24
    28ea:	f9 0b       	sbc	r31, r25
    28ec:	f0 93 ab 00 	sts	0x00AB, r31
    28f0:	e0 93 aa 00 	sts	0x00AA, r30
    28f4:	2f c0       	rjmp	.+94     	; 0x2954 <__stack+0x755>
        break; 
      case 8:
        OCR4C=ICR4-vAl;
    28f6:	20 91 a6 00 	lds	r18, 0x00A6
    28fa:	30 91 a7 00 	lds	r19, 0x00A7
    28fe:	a9 01       	movw	r20, r18
    2900:	48 1b       	sub	r20, r24
    2902:	59 0b       	sbc	r21, r25
    2904:	50 93 ad 00 	sts	0x00AD, r21
    2908:	40 93 ac 00 	sts	0x00AC, r20
    290c:	23 c0       	rjmp	.+70     	; 0x2954 <__stack+0x755>
        break;
      case 46:
        OCR5A=ICR5-vAl;
    290e:	20 91 26 01 	lds	r18, 0x0126
    2912:	30 91 27 01 	lds	r19, 0x0127
    2916:	f9 01       	movw	r30, r18
    2918:	e8 1b       	sub	r30, r24
    291a:	f9 0b       	sbc	r31, r25
    291c:	f0 93 29 01 	sts	0x0129, r31
    2920:	e0 93 28 01 	sts	0x0128, r30
    2924:	17 c0       	rjmp	.+46     	; 0x2954 <__stack+0x755>
        break;
      case 45:
        OCR5B=ICR5-vAl;
    2926:	20 91 26 01 	lds	r18, 0x0126
    292a:	30 91 27 01 	lds	r19, 0x0127
    292e:	a9 01       	movw	r20, r18
    2930:	48 1b       	sub	r20, r24
    2932:	59 0b       	sbc	r21, r25
    2934:	50 93 2b 01 	sts	0x012B, r21
    2938:	40 93 2a 01 	sts	0x012A, r20
    293c:	0b c0       	rjmp	.+22     	; 0x2954 <__stack+0x755>
        break;
      case 44:
        OCR5C=ICR5-vAl;
    293e:	20 91 26 01 	lds	r18, 0x0126
    2942:	30 91 27 01 	lds	r19, 0x0127
    2946:	f9 01       	movw	r30, r18
    2948:	e8 1b       	sub	r30, r24
    294a:	f9 0b       	sbc	r31, r25
    294c:	f0 93 2d 01 	sts	0x012D, r31
    2950:	e0 93 2c 01 	sts	0x012C, r30
     }
  }

  void write(int vAl)           //PIN=servo pin no. on mega,vAl=angle F_CPU for the servo at pin
  {
    vAl=constraint(mapAngle(vAl,0,200,iCr/39,iCr/8.3),iCr/40,iCr/8);
    2954:	a0 90 d1 02 	lds	r10, 0x02D1
    2958:	b0 90 d2 02 	lds	r11, 0x02D2
    295c:	c5 01       	movw	r24, r10
    295e:	67 e2       	ldi	r22, 0x27	; 39
    2960:	70 e0       	ldi	r23, 0x00	; 0
    2962:	0e 94 48 1a 	call	0x3490	; 0x3490 <__divmodhi4>
    2966:	6b 01       	movw	r12, r22
    2968:	ee 24       	eor	r14, r14
    296a:	d7 fc       	sbrc	r13, 7
    296c:	e0 94       	com	r14
    296e:	fe 2c       	mov	r15, r14
    2970:	b5 01       	movw	r22, r10
    2972:	88 27       	eor	r24, r24
    2974:	77 fd       	sbrc	r23, 7
    2976:	80 95       	com	r24
    2978:	98 2f       	mov	r25, r24
    297a:	0e 94 3a 19 	call	0x3274	; 0x3274 <__floatsisf>
    297e:	2d ec       	ldi	r18, 0xCD	; 205
    2980:	3c ec       	ldi	r19, 0xCC	; 204
    2982:	44 e0       	ldi	r20, 0x04	; 4
    2984:	51 e4       	ldi	r21, 0x41	; 65
    2986:	0e 94 9f 18 	call	0x313e	; 0x313e <__divsf3>
    298a:	0e 94 07 19 	call	0x320e	; 0x320e <__fixsfsi>
        break; 
    }   
  }
  long mapAngle(long x, long in_min, long in_max, long out_min, long out_max)
  {
    return (x - in_min) * (out_max - out_min) / (in_max - in_min) + out_min;
    298e:	6c 19       	sub	r22, r12
    2990:	7d 09       	sbc	r23, r13
    2992:	8e 09       	sbc	r24, r14
    2994:	9f 09       	sbc	r25, r15
	swerve4.write(angle+correction[3]);
    2996:	40 91 bc 02 	lds	r20, 0x02BC
    299a:	50 91 bd 02 	lds	r21, 0x02BD
    299e:	20 91 ba 02 	lds	r18, 0x02BA
    29a2:	30 91 bb 02 	lds	r19, 0x02BB
    29a6:	24 0f       	add	r18, r20
    29a8:	35 1f       	adc	r19, r21
     }
  }

  void write(int vAl)           //PIN=servo pin no. on mega,vAl=angle F_CPU for the servo at pin
  {
    vAl=constraint(mapAngle(vAl,0,200,iCr/39,iCr/8.3),iCr/40,iCr/8);
    29aa:	44 27       	eor	r20, r20
    29ac:	37 fd       	sbrc	r19, 7
    29ae:	40 95       	com	r20
    29b0:	54 2f       	mov	r21, r20
        break; 
    }   
  }
  long mapAngle(long x, long in_min, long in_max, long out_min, long out_max)
  {
    return (x - in_min) * (out_max - out_min) / (in_max - in_min) + out_min;
    29b2:	0e 94 29 1a 	call	0x3452	; 0x3452 <__mulsi3>
    29b6:	28 ec       	ldi	r18, 0xC8	; 200
    29b8:	30 e0       	ldi	r19, 0x00	; 0
    29ba:	40 e0       	ldi	r20, 0x00	; 0
    29bc:	50 e0       	ldi	r21, 0x00	; 0
    29be:	0e 94 5b 1a 	call	0x34b6	; 0x34b6 <__divmodsi4>
    29c2:	89 01       	movw	r16, r18
    29c4:	9a 01       	movw	r18, r20
    29c6:	0c 0d       	add	r16, r12
    29c8:	1d 1d       	adc	r17, r13
    29ca:	2e 1d       	adc	r18, r14
    29cc:	3f 1d       	adc	r19, r15
     }
  }

  void write(int vAl)           //PIN=servo pin no. on mega,vAl=angle F_CPU for the servo at pin
  {
    vAl=constraint(mapAngle(vAl,0,200,iCr/39,iCr/8.3),iCr/40,iCr/8);
    29ce:	c5 01       	movw	r24, r10
    29d0:	bb 20       	and	r11, r11
    29d2:	0c f4       	brge	.+2      	; 0x29d6 <__stack+0x7d7>
    29d4:	07 96       	adiw	r24, 0x07	; 7
    29d6:	95 95       	asr	r25
    29d8:	87 95       	ror	r24
    29da:	95 95       	asr	r25
    29dc:	87 95       	ror	r24
    29de:	95 95       	asr	r25
    29e0:	87 95       	ror	r24
    29e2:	aa 27       	eor	r26, r26
    29e4:	97 fd       	sbrc	r25, 7
    29e6:	a0 95       	com	r26
    29e8:	ba 2f       	mov	r27, r26
  {
    return (x - in_min) * (out_max - out_min) / (in_max - in_min) + out_min;
  }
  long constraint(long nUm,long lOwer,long uPper)
  {
    if(nUm>uPper){
    29ea:	80 17       	cp	r24, r16
    29ec:	91 07       	cpc	r25, r17
    29ee:	a2 07       	cpc	r26, r18
    29f0:	b3 07       	cpc	r27, r19
    29f2:	a4 f0       	brlt	.+40     	; 0x2a1c <__stack+0x81d>
     }
  }

  void write(int vAl)           //PIN=servo pin no. on mega,vAl=angle F_CPU for the servo at pin
  {
    vAl=constraint(mapAngle(vAl,0,200,iCr/39,iCr/8.3),iCr/40,iCr/8);
    29f4:	c5 01       	movw	r24, r10
    29f6:	68 e2       	ldi	r22, 0x28	; 40
    29f8:	70 e0       	ldi	r23, 0x00	; 0
    29fa:	0e 94 48 1a 	call	0x3490	; 0x3490 <__divmodhi4>
    29fe:	cb 01       	movw	r24, r22
    2a00:	ac 01       	movw	r20, r24
    2a02:	66 27       	eor	r22, r22
    2a04:	57 fd       	sbrc	r21, 7
    2a06:	60 95       	com	r22
    2a08:	76 2f       	mov	r23, r22
    2a0a:	d9 01       	movw	r26, r18
    2a0c:	c8 01       	movw	r24, r16
    2a0e:	04 17       	cp	r16, r20
    2a10:	15 07       	cpc	r17, r21
    2a12:	26 07       	cpc	r18, r22
    2a14:	37 07       	cpc	r19, r23
    2a16:	14 f4       	brge	.+4      	; 0x2a1c <__stack+0x81d>
    2a18:	db 01       	movw	r26, r22
    2a1a:	ca 01       	movw	r24, r20
    switch(pIn)
    2a1c:	20 91 d3 02 	lds	r18, 0x02D3
    2a20:	28 30       	cpi	r18, 0x08	; 8
    2a22:	09 f4       	brne	.+2      	; 0x2a26 <__stack+0x827>
    2a24:	7a c0       	rjmp	.+244    	; 0x2b1a <__stack+0x91b>
    2a26:	29 30       	cpi	r18, 0x09	; 9
    2a28:	90 f4       	brcc	.+36     	; 0x2a4e <__stack+0x84f>
    2a2a:	25 30       	cpi	r18, 0x05	; 5
    2a2c:	d1 f1       	breq	.+116    	; 0x2aa2 <__stack+0x8a3>
    2a2e:	26 30       	cpi	r18, 0x06	; 6
    2a30:	38 f4       	brcc	.+14     	; 0x2a40 <__stack+0x841>
    2a32:	22 30       	cpi	r18, 0x02	; 2
    2a34:	09 f4       	brne	.+2      	; 0x2a38 <__stack+0x839>
    2a36:	41 c0       	rjmp	.+130    	; 0x2aba <__stack+0x8bb>
    2a38:	23 30       	cpi	r18, 0x03	; 3
    2a3a:	09 f0       	breq	.+2      	; 0x2a3e <__stack+0x83f>
    2a3c:	9d c0       	rjmp	.+314    	; 0x2b78 <__stack+0x979>
    2a3e:	49 c0       	rjmp	.+146    	; 0x2ad2 <__stack+0x8d3>
    2a40:	26 30       	cpi	r18, 0x06	; 6
    2a42:	09 f4       	brne	.+2      	; 0x2a46 <__stack+0x847>
    2a44:	52 c0       	rjmp	.+164    	; 0x2aea <__stack+0x8eb>
    2a46:	27 30       	cpi	r18, 0x07	; 7
    2a48:	09 f0       	breq	.+2      	; 0x2a4c <__stack+0x84d>
    2a4a:	96 c0       	rjmp	.+300    	; 0x2b78 <__stack+0x979>
    2a4c:	5a c0       	rjmp	.+180    	; 0x2b02 <__stack+0x903>
    2a4e:	2c 32       	cpi	r18, 0x2C	; 44
    2a50:	09 f4       	brne	.+2      	; 0x2a54 <__stack+0x855>
    2a52:	87 c0       	rjmp	.+270    	; 0x2b62 <__stack+0x963>
    2a54:	2d 32       	cpi	r18, 0x2D	; 45
    2a56:	30 f4       	brcc	.+12     	; 0x2a64 <__stack+0x865>
    2a58:	2b 30       	cpi	r18, 0x0B	; 11
    2a5a:	59 f0       	breq	.+22     	; 0x2a72 <__stack+0x873>
    2a5c:	2c 30       	cpi	r18, 0x0C	; 12
    2a5e:	09 f0       	breq	.+2      	; 0x2a62 <__stack+0x863>
    2a60:	8b c0       	rjmp	.+278    	; 0x2b78 <__stack+0x979>
    2a62:	13 c0       	rjmp	.+38     	; 0x2a8a <__stack+0x88b>
    2a64:	2d 32       	cpi	r18, 0x2D	; 45
    2a66:	09 f4       	brne	.+2      	; 0x2a6a <__stack+0x86b>
    2a68:	70 c0       	rjmp	.+224    	; 0x2b4a <__stack+0x94b>
    2a6a:	2e 32       	cpi	r18, 0x2E	; 46
    2a6c:	09 f0       	breq	.+2      	; 0x2a70 <__stack+0x871>
    2a6e:	84 c0       	rjmp	.+264    	; 0x2b78 <__stack+0x979>
    2a70:	60 c0       	rjmp	.+192    	; 0x2b32 <__stack+0x933>
    {
      case 11:
        OCR1A=ICR1-vAl;
    2a72:	20 91 86 00 	lds	r18, 0x0086
    2a76:	30 91 87 00 	lds	r19, 0x0087
    2a7a:	f9 01       	movw	r30, r18
    2a7c:	e8 1b       	sub	r30, r24
    2a7e:	f9 0b       	sbc	r31, r25
    2a80:	f0 93 89 00 	sts	0x0089, r31
    2a84:	e0 93 88 00 	sts	0x0088, r30
    2a88:	77 c0       	rjmp	.+238    	; 0x2b78 <__stack+0x979>
        break;
      case 12:
        OCR1B=ICR1-vAl;
    2a8a:	20 91 86 00 	lds	r18, 0x0086
    2a8e:	30 91 87 00 	lds	r19, 0x0087
    2a92:	a9 01       	movw	r20, r18
    2a94:	48 1b       	sub	r20, r24
    2a96:	59 0b       	sbc	r21, r25
    2a98:	50 93 8b 00 	sts	0x008B, r21
    2a9c:	40 93 8a 00 	sts	0x008A, r20
    2aa0:	6b c0       	rjmp	.+214    	; 0x2b78 <__stack+0x979>
        break;
      case 5:
        OCR3A=ICR3-vAl;
    2aa2:	20 91 96 00 	lds	r18, 0x0096
    2aa6:	30 91 97 00 	lds	r19, 0x0097
    2aaa:	f9 01       	movw	r30, r18
    2aac:	e8 1b       	sub	r30, r24
    2aae:	f9 0b       	sbc	r31, r25
    2ab0:	f0 93 99 00 	sts	0x0099, r31
    2ab4:	e0 93 98 00 	sts	0x0098, r30
    2ab8:	5f c0       	rjmp	.+190    	; 0x2b78 <__stack+0x979>
        break;
      case 2:
        OCR3B=ICR3-vAl;
    2aba:	20 91 96 00 	lds	r18, 0x0096
    2abe:	30 91 97 00 	lds	r19, 0x0097
    2ac2:	a9 01       	movw	r20, r18
    2ac4:	48 1b       	sub	r20, r24
    2ac6:	59 0b       	sbc	r21, r25
    2ac8:	50 93 9b 00 	sts	0x009B, r21
    2acc:	40 93 9a 00 	sts	0x009A, r20
    2ad0:	53 c0       	rjmp	.+166    	; 0x2b78 <__stack+0x979>
        break;
      case 3:
        OCR3C=ICR3-vAl;
    2ad2:	20 91 96 00 	lds	r18, 0x0096
    2ad6:	30 91 97 00 	lds	r19, 0x0097
    2ada:	f9 01       	movw	r30, r18
    2adc:	e8 1b       	sub	r30, r24
    2ade:	f9 0b       	sbc	r31, r25
    2ae0:	f0 93 9d 00 	sts	0x009D, r31
    2ae4:	e0 93 9c 00 	sts	0x009C, r30
    2ae8:	47 c0       	rjmp	.+142    	; 0x2b78 <__stack+0x979>
        break;
      case 6:
        OCR4A=ICR4-vAl;
    2aea:	20 91 a6 00 	lds	r18, 0x00A6
    2aee:	30 91 a7 00 	lds	r19, 0x00A7
    2af2:	a9 01       	movw	r20, r18
    2af4:	48 1b       	sub	r20, r24
    2af6:	59 0b       	sbc	r21, r25
    2af8:	50 93 a9 00 	sts	0x00A9, r21
    2afc:	40 93 a8 00 	sts	0x00A8, r20
    2b00:	3b c0       	rjmp	.+118    	; 0x2b78 <__stack+0x979>
        break;
      case 7:
        OCR4B=ICR4-vAl;
    2b02:	20 91 a6 00 	lds	r18, 0x00A6
    2b06:	30 91 a7 00 	lds	r19, 0x00A7
    2b0a:	f9 01       	movw	r30, r18
    2b0c:	e8 1b       	sub	r30, r24
    2b0e:	f9 0b       	sbc	r31, r25
    2b10:	f0 93 ab 00 	sts	0x00AB, r31
    2b14:	e0 93 aa 00 	sts	0x00AA, r30
    2b18:	2f c0       	rjmp	.+94     	; 0x2b78 <__stack+0x979>
        break; 
      case 8:
        OCR4C=ICR4-vAl;
    2b1a:	20 91 a6 00 	lds	r18, 0x00A6
    2b1e:	30 91 a7 00 	lds	r19, 0x00A7
    2b22:	a9 01       	movw	r20, r18
    2b24:	48 1b       	sub	r20, r24
    2b26:	59 0b       	sbc	r21, r25
    2b28:	50 93 ad 00 	sts	0x00AD, r21
    2b2c:	40 93 ac 00 	sts	0x00AC, r20
    2b30:	23 c0       	rjmp	.+70     	; 0x2b78 <__stack+0x979>
        break;
      case 46:
        OCR5A=ICR5-vAl;
    2b32:	20 91 26 01 	lds	r18, 0x0126
    2b36:	30 91 27 01 	lds	r19, 0x0127
    2b3a:	f9 01       	movw	r30, r18
    2b3c:	e8 1b       	sub	r30, r24
    2b3e:	f9 0b       	sbc	r31, r25
    2b40:	f0 93 29 01 	sts	0x0129, r31
    2b44:	e0 93 28 01 	sts	0x0128, r30
    2b48:	17 c0       	rjmp	.+46     	; 0x2b78 <__stack+0x979>
        break;
      case 45:
        OCR5B=ICR5-vAl;
    2b4a:	20 91 26 01 	lds	r18, 0x0126
    2b4e:	30 91 27 01 	lds	r19, 0x0127
    2b52:	a9 01       	movw	r20, r18
    2b54:	48 1b       	sub	r20, r24
    2b56:	59 0b       	sbc	r21, r25
    2b58:	50 93 2b 01 	sts	0x012B, r21
    2b5c:	40 93 2a 01 	sts	0x012A, r20
    2b60:	0b c0       	rjmp	.+22     	; 0x2b78 <__stack+0x979>
        break;
      case 44:
        OCR5C=ICR5-vAl;
    2b62:	20 91 26 01 	lds	r18, 0x0126
    2b66:	30 91 27 01 	lds	r19, 0x0127
    2b6a:	f9 01       	movw	r30, r18
    2b6c:	e8 1b       	sub	r30, r24
    2b6e:	f9 0b       	sbc	r31, r25
    2b70:	f0 93 2d 01 	sts	0x012D, r31
    2b74:	e0 93 2c 01 	sts	0x012C, r30
		digitalWrite(dIrpin1,dIrection1);
		digitalWrite(dIrpin2,dIrection2);
	}

	void direction(uint8_t dIrection, uint8_t dIrection1, uint8_t dIrection2, uint8_t dIrection3){
		pinMode(dIrpin,OUTPUT);     //sets direction pin as output
    2b78:	80 91 d5 02 	lds	r24, 0x02D5
    2b7c:	61 e0       	ldi	r22, 0x01	; 1
    2b7e:	0e 94 a6 00 	call	0x14c	; 0x14c <_Z7pinModehh>
	    pinMode(dIrpin1,OUTPUT);
    2b82:	80 91 da 02 	lds	r24, 0x02DA
    2b86:	61 e0       	ldi	r22, 0x01	; 1
    2b88:	0e 94 a6 00 	call	0x14c	; 0x14c <_Z7pinModehh>
	    pinMode(dIrpin2,OUTPUT);
    2b8c:	80 91 de 02 	lds	r24, 0x02DE
    2b90:	61 e0       	ldi	r22, 0x01	; 1
    2b92:	0e 94 a6 00 	call	0x14c	; 0x14c <_Z7pinModehh>
	    pinMode(dIrpin3,OUTPUT);
    2b96:	80 91 e2 02 	lds	r24, 0x02E2
    2b9a:	61 e0       	ldi	r22, 0x01	; 1
    2b9c:	0e 94 a6 00 	call	0x14c	; 0x14c <_Z7pinModehh>
		digitalWrite(dIrpin,dIrection);
    2ba0:	80 91 d5 02 	lds	r24, 0x02D5
    2ba4:	61 e0       	ldi	r22, 0x01	; 1
    2ba6:	0e 94 19 02 	call	0x432	; 0x432 <_Z12digitalWritehh>
		digitalWrite(dIrpin1,dIrection1);
    2baa:	80 91 da 02 	lds	r24, 0x02DA
    2bae:	61 e0       	ldi	r22, 0x01	; 1
    2bb0:	0e 94 19 02 	call	0x432	; 0x432 <_Z12digitalWritehh>
		digitalWrite(dIrpin2,dIrection2);
    2bb4:	80 91 de 02 	lds	r24, 0x02DE
    2bb8:	61 e0       	ldi	r22, 0x01	; 1
    2bba:	0e 94 19 02 	call	0x432	; 0x432 <_Z12digitalWritehh>
		digitalWrite(dIrpin3,dIrection3);
    2bbe:	80 91 e2 02 	lds	r24, 0x02E2
    2bc2:	61 e0       	ldi	r22, 0x01	; 1
    2bc4:	0e 94 19 02 	call	0x432	; 0x432 <_Z12digitalWritehh>
	}	
	
	//FOUR MOTORS
	void drive(uint8_t pWm, uint8_t pWm1, uint8_t pWm2, uint8_t pWm3){
		
		if(pWm>lAstpwm||pWm1>lAstpwm1||pWm2>lAstpwm2||pWm3>lAstpwm3){		//accelerate
    2bc8:	80 91 d7 02 	lds	r24, 0x02D7
    2bcc:	88 3c       	cpi	r24, 0xC8	; 200
    2bce:	08 f4       	brcc	.+2      	; 0x2bd2 <__stack+0x9d3>
    2bd0:	9f c0       	rjmp	.+318    	; 0x2d10 <__stack+0xb11>
    2bd2:	90 91 dc 02 	lds	r25, 0x02DC
    2bd6:	98 3c       	cpi	r25, 0xC8	; 200
    2bd8:	08 f4       	brcc	.+2      	; 0x2bdc <__stack+0x9dd>
    2bda:	9a c0       	rjmp	.+308    	; 0x2d10 <__stack+0xb11>
    2bdc:	20 91 e0 02 	lds	r18, 0x02E0
    2be0:	28 3c       	cpi	r18, 0xC8	; 200
    2be2:	08 f4       	brcc	.+2      	; 0x2be6 <__stack+0x9e7>
    2be4:	95 c0       	rjmp	.+298    	; 0x2d10 <__stack+0xb11>
    2be6:	30 91 e4 02 	lds	r19, 0x02E4
    2bea:	38 3c       	cpi	r19, 0xC8	; 200
    2bec:	08 f4       	brcc	.+2      	; 0x2bf0 <__stack+0x9f1>
    2bee:	90 c0       	rjmp	.+288    	; 0x2d10 <__stack+0xb11>
    2bf0:	f0 c0       	rjmp	.+480    	; 0x2dd2 <__stack+0xbd3>

			for(lAstpwm=lAstpwm,lAstpwm1=lAstpwm1,lAstpwm2=lAstpwm2,lAstpwm3=lAstpwm3;lAstpwm<pWm||lAstpwm1<pWm1||lAstpwm2<pWm2||lAstpwm3<pWm3;){		//increase the speed step by step
				if (pWm>lAstpwm){
					lAstpwm+=step1;
    2bf2:	f2 01       	movw	r30, r4
    2bf4:	60 81       	ld	r22, Z
    2bf6:	86 0f       	add	r24, r22
    2bf8:	e9 81       	ldd	r30, Y+1	; 0x01
    2bfa:	fa 81       	ldd	r31, Y+2	; 0x02
    2bfc:	80 83       	st	Z, r24
					analogWrite(pWmpin,constrain(lAstpwm,0,pWm));
    2bfe:	68 2f       	mov	r22, r24
    2c00:	70 e0       	ldi	r23, 0x00	; 0
    2c02:	80 e0       	ldi	r24, 0x00	; 0
    2c04:	90 e0       	ldi	r25, 0x00	; 0
    2c06:	20 e0       	ldi	r18, 0x00	; 0
    2c08:	30 e0       	ldi	r19, 0x00	; 0
    2c0a:	a9 01       	movw	r20, r18
    2c0c:	0f 2e       	mov	r0, r31
    2c0e:	f8 ec       	ldi	r31, 0xC8	; 200
    2c10:	ef 2e       	mov	r14, r31
    2c12:	f0 e0       	ldi	r31, 0x00	; 0
    2c14:	ff 2e       	mov	r15, r31
    2c16:	f0 e0       	ldi	r31, 0x00	; 0
    2c18:	0f 2f       	mov	r16, r31
    2c1a:	f0 e0       	ldi	r31, 0x00	; 0
    2c1c:	1f 2f       	mov	r17, r31
    2c1e:	f0 2d       	mov	r31, r0
    2c20:	0e 94 cc 05 	call	0xb98	; 0xb98 <_Z9constrainlll>
    2c24:	eb 81       	ldd	r30, Y+3	; 0x03
    2c26:	fc 81       	ldd	r31, Y+4	; 0x04
    2c28:	80 81       	ld	r24, Z
    2c2a:	0e 94 11 04 	call	0x822	; 0x822 <_Z11analogWritehh>
				}
				if (pWm1>lAstpwm1){
    2c2e:	ec ed       	ldi	r30, 0xDC	; 220
    2c30:	f2 e0       	ldi	r31, 0x02	; 2
    2c32:	80 81       	ld	r24, Z
    2c34:	88 3c       	cpi	r24, 0xC8	; 200
    2c36:	f0 f4       	brcc	.+60     	; 0x2c74 <__stack+0xa75>
					lAstpwm1+=step2;
    2c38:	f1 01       	movw	r30, r2
    2c3a:	60 81       	ld	r22, Z
    2c3c:	86 0f       	add	r24, r22
    2c3e:	ed 81       	ldd	r30, Y+5	; 0x05
    2c40:	fe 81       	ldd	r31, Y+6	; 0x06
    2c42:	80 83       	st	Z, r24
					analogWrite(pWmpin1,constrain(lAstpwm1,0,pWm1));
    2c44:	68 2f       	mov	r22, r24
    2c46:	70 e0       	ldi	r23, 0x00	; 0
    2c48:	80 e0       	ldi	r24, 0x00	; 0
    2c4a:	90 e0       	ldi	r25, 0x00	; 0
    2c4c:	20 e0       	ldi	r18, 0x00	; 0
    2c4e:	30 e0       	ldi	r19, 0x00	; 0
    2c50:	a9 01       	movw	r20, r18
    2c52:	0f 2e       	mov	r0, r31
    2c54:	f8 ec       	ldi	r31, 0xC8	; 200
    2c56:	ef 2e       	mov	r14, r31
    2c58:	f0 e0       	ldi	r31, 0x00	; 0
    2c5a:	ff 2e       	mov	r15, r31
    2c5c:	f0 e0       	ldi	r31, 0x00	; 0
    2c5e:	0f 2f       	mov	r16, r31
    2c60:	f0 e0       	ldi	r31, 0x00	; 0
    2c62:	1f 2f       	mov	r17, r31
    2c64:	f0 2d       	mov	r31, r0
    2c66:	0e 94 cc 05 	call	0xb98	; 0xb98 <_Z9constrainlll>
    2c6a:	ef 81       	ldd	r30, Y+7	; 0x07
    2c6c:	f8 85       	ldd	r31, Y+8	; 0x08
    2c6e:	80 81       	ld	r24, Z
    2c70:	0e 94 11 04 	call	0x822	; 0x822 <_Z11analogWritehh>
				}
				if (pWm2>lAstpwm2){
    2c74:	f6 01       	movw	r30, r12
    2c76:	80 81       	ld	r24, Z
    2c78:	88 3c       	cpi	r24, 0xC8	; 200
    2c7a:	f8 f4       	brcc	.+62     	; 0x2cba <__stack+0xabb>
					lAstpwm2+=step3;
    2c7c:	e1 ee       	ldi	r30, 0xE1	; 225
    2c7e:	f2 e0       	ldi	r31, 0x02	; 2
    2c80:	60 81       	ld	r22, Z
    2c82:	86 0f       	add	r24, r22
    2c84:	e9 85       	ldd	r30, Y+9	; 0x09
    2c86:	fa 85       	ldd	r31, Y+10	; 0x0a
    2c88:	80 83       	st	Z, r24
					analogWrite(pWmpin2,constrain(lAstpwm2,0,pWm2));
    2c8a:	68 2f       	mov	r22, r24
    2c8c:	70 e0       	ldi	r23, 0x00	; 0
    2c8e:	80 e0       	ldi	r24, 0x00	; 0
    2c90:	90 e0       	ldi	r25, 0x00	; 0
    2c92:	20 e0       	ldi	r18, 0x00	; 0
    2c94:	30 e0       	ldi	r19, 0x00	; 0
    2c96:	a9 01       	movw	r20, r18
    2c98:	0f 2e       	mov	r0, r31
    2c9a:	f8 ec       	ldi	r31, 0xC8	; 200
    2c9c:	ef 2e       	mov	r14, r31
    2c9e:	f0 e0       	ldi	r31, 0x00	; 0
    2ca0:	ff 2e       	mov	r15, r31
    2ca2:	f0 e0       	ldi	r31, 0x00	; 0
    2ca4:	0f 2f       	mov	r16, r31
    2ca6:	f0 e0       	ldi	r31, 0x00	; 0
    2ca8:	1f 2f       	mov	r17, r31
    2caa:	f0 2d       	mov	r31, r0
    2cac:	0e 94 cc 05 	call	0xb98	; 0xb98 <_Z9constrainlll>
    2cb0:	eb 85       	ldd	r30, Y+11	; 0x0b
    2cb2:	fc 85       	ldd	r31, Y+12	; 0x0c
    2cb4:	80 81       	ld	r24, Z
    2cb6:	0e 94 11 04 	call	0x822	; 0x822 <_Z11analogWritehh>
				}
				if (pWm3>lAstpwm3){
    2cba:	f5 01       	movw	r30, r10
    2cbc:	80 81       	ld	r24, Z
    2cbe:	88 3c       	cpi	r24, 0xC8	; 200
    2cc0:	f8 f4       	brcc	.+62     	; 0x2d00 <__stack+0xb01>
					lAstpwm3+=step4;
    2cc2:	e5 ee       	ldi	r30, 0xE5	; 229
    2cc4:	f2 e0       	ldi	r31, 0x02	; 2
    2cc6:	60 81       	ld	r22, Z
    2cc8:	86 0f       	add	r24, r22
    2cca:	ed 85       	ldd	r30, Y+13	; 0x0d
    2ccc:	fe 85       	ldd	r31, Y+14	; 0x0e
    2cce:	80 83       	st	Z, r24
					analogWrite(pWmpin3,constrain(lAstpwm3,0,pWm3));
    2cd0:	68 2f       	mov	r22, r24
    2cd2:	70 e0       	ldi	r23, 0x00	; 0
    2cd4:	80 e0       	ldi	r24, 0x00	; 0
    2cd6:	90 e0       	ldi	r25, 0x00	; 0
    2cd8:	20 e0       	ldi	r18, 0x00	; 0
    2cda:	30 e0       	ldi	r19, 0x00	; 0
    2cdc:	a9 01       	movw	r20, r18
    2cde:	0f 2e       	mov	r0, r31
    2ce0:	f8 ec       	ldi	r31, 0xC8	; 200
    2ce2:	ef 2e       	mov	r14, r31
    2ce4:	f0 e0       	ldi	r31, 0x00	; 0
    2ce6:	ff 2e       	mov	r15, r31
    2ce8:	f0 e0       	ldi	r31, 0x00	; 0
    2cea:	0f 2f       	mov	r16, r31
    2cec:	f0 e0       	ldi	r31, 0x00	; 0
    2cee:	1f 2f       	mov	r17, r31
    2cf0:	f0 2d       	mov	r31, r0
    2cf2:	0e 94 cc 05 	call	0xb98	; 0xb98 <_Z9constrainlll>
    2cf6:	ef 85       	ldd	r30, Y+15	; 0x0f
    2cf8:	f8 89       	ldd	r31, Y+16	; 0x10
    2cfa:	80 81       	ld	r24, Z
    2cfc:	0e 94 11 04 	call	0x822	; 0x822 <_Z11analogWritehh>
				}	
				delay(interval);		
    2d00:	f3 01       	movw	r30, r6
    2d02:	60 81       	ld	r22, Z
    2d04:	70 e0       	ldi	r23, 0x00	; 0
    2d06:	80 e0       	ldi	r24, 0x00	; 0
    2d08:	90 e0       	ldi	r25, 0x00	; 0
    2d0a:	0e 94 4a 05 	call	0xa94	; 0xa94 <_Z5delaym>
    2d0e:	4b c0       	rjmp	.+150    	; 0x2da6 <__stack+0xba7>
	//FOUR MOTORS
	void drive(uint8_t pWm, uint8_t pWm1, uint8_t pWm2, uint8_t pWm3){
		
		if(pWm>lAstpwm||pWm1>lAstpwm1||pWm2>lAstpwm2||pWm3>lAstpwm3){		//accelerate

			for(lAstpwm=lAstpwm,lAstpwm1=lAstpwm1,lAstpwm2=lAstpwm2,lAstpwm3=lAstpwm3;lAstpwm<pWm||lAstpwm1<pWm1||lAstpwm2<pWm2||lAstpwm3<pWm3;){		//increase the speed step by step
    2d10:	0f 2e       	mov	r0, r31
    2d12:	f7 ed       	ldi	r31, 0xD7	; 215
    2d14:	8f 2e       	mov	r8, r31
    2d16:	f2 e0       	ldi	r31, 0x02	; 2
    2d18:	9f 2e       	mov	r9, r31
    2d1a:	f0 2d       	mov	r31, r0
				if (pWm>lAstpwm){
					lAstpwm+=step1;
    2d1c:	0f 2e       	mov	r0, r31
    2d1e:	f8 ed       	ldi	r31, 0xD8	; 216
    2d20:	4f 2e       	mov	r4, r31
    2d22:	f2 e0       	ldi	r31, 0x02	; 2
    2d24:	5f 2e       	mov	r5, r31
    2d26:	f0 2d       	mov	r31, r0
    2d28:	a2 01       	movw	r20, r4
    2d2a:	41 50       	subi	r20, 0x01	; 1
    2d2c:	50 40       	sbci	r21, 0x00	; 0
    2d2e:	5a 83       	std	Y+2, r21	; 0x02
    2d30:	49 83       	std	Y+1, r20	; 0x01
					analogWrite(pWmpin,constrain(lAstpwm,0,pWm));
    2d32:	c2 01       	movw	r24, r4
    2d34:	02 97       	sbiw	r24, 0x02	; 2
    2d36:	9c 83       	std	Y+4, r25	; 0x04
    2d38:	8b 83       	std	Y+3, r24	; 0x03
	//FOUR MOTORS
	void drive(uint8_t pWm, uint8_t pWm1, uint8_t pWm2, uint8_t pWm3){
		
		if(pWm>lAstpwm||pWm1>lAstpwm1||pWm2>lAstpwm2||pWm3>lAstpwm3){		//accelerate

			for(lAstpwm=lAstpwm,lAstpwm1=lAstpwm1,lAstpwm2=lAstpwm2,lAstpwm3=lAstpwm3;lAstpwm<pWm||lAstpwm1<pWm1||lAstpwm2<pWm2||lAstpwm3<pWm3;){		//increase the speed step by step
    2d3a:	0f 2e       	mov	r0, r31
    2d3c:	f0 ee       	ldi	r31, 0xE0	; 224
    2d3e:	cf 2e       	mov	r12, r31
    2d40:	f2 e0       	ldi	r31, 0x02	; 2
    2d42:	df 2e       	mov	r13, r31
    2d44:	f0 2d       	mov	r31, r0
    2d46:	0f 2e       	mov	r0, r31
    2d48:	f4 ee       	ldi	r31, 0xE4	; 228
    2d4a:	af 2e       	mov	r10, r31
    2d4c:	f2 e0       	ldi	r31, 0x02	; 2
    2d4e:	bf 2e       	mov	r11, r31
    2d50:	f0 2d       	mov	r31, r0
				if (pWm>lAstpwm){
					lAstpwm+=step1;
					analogWrite(pWmpin,constrain(lAstpwm,0,pWm));
				}
				if (pWm1>lAstpwm1){
					lAstpwm1+=step2;
    2d52:	0f 2e       	mov	r0, r31
    2d54:	fd ed       	ldi	r31, 0xDD	; 221
    2d56:	2f 2e       	mov	r2, r31
    2d58:	f2 e0       	ldi	r31, 0x02	; 2
    2d5a:	3f 2e       	mov	r3, r31
    2d5c:	f0 2d       	mov	r31, r0
    2d5e:	f1 01       	movw	r30, r2
    2d60:	31 97       	sbiw	r30, 0x01	; 1
    2d62:	fe 83       	std	Y+6, r31	; 0x06
    2d64:	ed 83       	std	Y+5, r30	; 0x05
					analogWrite(pWmpin1,constrain(lAstpwm1,0,pWm1));
    2d66:	a1 01       	movw	r20, r2
    2d68:	42 50       	subi	r20, 0x02	; 2
    2d6a:	50 40       	sbci	r21, 0x00	; 0
    2d6c:	58 87       	std	Y+8, r21	; 0x08
    2d6e:	4f 83       	std	Y+7, r20	; 0x07
				}
				if (pWm2>lAstpwm2){
					lAstpwm2+=step3;
    2d70:	81 ee       	ldi	r24, 0xE1	; 225
    2d72:	92 e0       	ldi	r25, 0x02	; 2
    2d74:	01 97       	sbiw	r24, 0x01	; 1
    2d76:	9a 87       	std	Y+10, r25	; 0x0a
    2d78:	89 87       	std	Y+9, r24	; 0x09
					analogWrite(pWmpin2,constrain(lAstpwm2,0,pWm2));
    2d7a:	e1 ee       	ldi	r30, 0xE1	; 225
    2d7c:	f2 e0       	ldi	r31, 0x02	; 2
    2d7e:	32 97       	sbiw	r30, 0x02	; 2
    2d80:	fc 87       	std	Y+12, r31	; 0x0c
    2d82:	eb 87       	std	Y+11, r30	; 0x0b
				}
				if (pWm3>lAstpwm3){
					lAstpwm3+=step4;
    2d84:	45 ee       	ldi	r20, 0xE5	; 229
    2d86:	52 e0       	ldi	r21, 0x02	; 2
    2d88:	41 50       	subi	r20, 0x01	; 1
    2d8a:	50 40       	sbci	r21, 0x00	; 0
    2d8c:	5e 87       	std	Y+14, r21	; 0x0e
    2d8e:	4d 87       	std	Y+13, r20	; 0x0d
					analogWrite(pWmpin3,constrain(lAstpwm3,0,pWm3));
    2d90:	85 ee       	ldi	r24, 0xE5	; 229
    2d92:	92 e0       	ldi	r25, 0x02	; 2
    2d94:	02 97       	sbiw	r24, 0x02	; 2
    2d96:	98 8b       	std	Y+16, r25	; 0x10
    2d98:	8f 87       	std	Y+15, r24	; 0x0f
				}	
				delay(interval);		
    2d9a:	0f 2e       	mov	r0, r31
    2d9c:	f9 ed       	ldi	r31, 0xD9	; 217
    2d9e:	6f 2e       	mov	r6, r31
    2da0:	f2 e0       	ldi	r31, 0x02	; 2
    2da2:	7f 2e       	mov	r7, r31
    2da4:	f0 2d       	mov	r31, r0
	//FOUR MOTORS
	void drive(uint8_t pWm, uint8_t pWm1, uint8_t pWm2, uint8_t pWm3){
		
		if(pWm>lAstpwm||pWm1>lAstpwm1||pWm2>lAstpwm2||pWm3>lAstpwm3){		//accelerate

			for(lAstpwm=lAstpwm,lAstpwm1=lAstpwm1,lAstpwm2=lAstpwm2,lAstpwm3=lAstpwm3;lAstpwm<pWm||lAstpwm1<pWm1||lAstpwm2<pWm2||lAstpwm3<pWm3;){		//increase the speed step by step
    2da6:	f4 01       	movw	r30, r8
    2da8:	80 81       	ld	r24, Z
    2daa:	88 3c       	cpi	r24, 0xC8	; 200
    2dac:	08 f4       	brcc	.+2      	; 0x2db0 <__stack+0xbb1>
    2dae:	21 cf       	rjmp	.-446    	; 0x2bf2 <__stack+0x9f3>
    2db0:	ec ed       	ldi	r30, 0xDC	; 220
    2db2:	f2 e0       	ldi	r31, 0x02	; 2
    2db4:	80 81       	ld	r24, Z
    2db6:	88 3c       	cpi	r24, 0xC8	; 200
    2db8:	08 f4       	brcc	.+2      	; 0x2dbc <__stack+0xbbd>
    2dba:	39 cf       	rjmp	.-398    	; 0x2c2e <__stack+0xa2f>
    2dbc:	f6 01       	movw	r30, r12
    2dbe:	80 81       	ld	r24, Z
    2dc0:	88 3c       	cpi	r24, 0xC8	; 200
    2dc2:	08 f4       	brcc	.+2      	; 0x2dc6 <__stack+0xbc7>
    2dc4:	34 cf       	rjmp	.-408    	; 0x2c2e <__stack+0xa2f>
    2dc6:	f5 01       	movw	r30, r10
    2dc8:	80 81       	ld	r24, Z
    2dca:	88 3c       	cpi	r24, 0xC8	; 200
    2dcc:	08 f0       	brcs	.+2      	; 0x2dd0 <__stack+0xbd1>
    2dce:	11 c1       	rjmp	.+546    	; 0x2ff2 <__stack+0xdf3>
    2dd0:	2e cf       	rjmp	.-420    	; 0x2c2e <__stack+0xa2f>
				delay(interval);		
			}
			
		}

		else if(pWm<lAstpwm||pWm1<lAstpwm1||pWm2<lAstpwm2||pWm3<lAstpwm3){				//decelerate
    2dd2:	89 3c       	cpi	r24, 0xC9	; 201
    2dd4:	08 f0       	brcs	.+2      	; 0x2dd8 <__stack+0xbd9>
    2dd6:	99 c0       	rjmp	.+306    	; 0x2f0a <__stack+0xd0b>
    2dd8:	99 3c       	cpi	r25, 0xC9	; 201
    2dda:	08 f0       	brcs	.+2      	; 0x2dde <__stack+0xbdf>
    2ddc:	96 c0       	rjmp	.+300    	; 0x2f0a <__stack+0xd0b>
    2dde:	29 3c       	cpi	r18, 0xC9	; 201
    2de0:	08 f0       	brcs	.+2      	; 0x2de4 <__stack+0xbe5>
    2de2:	93 c0       	rjmp	.+294    	; 0x2f0a <__stack+0xd0b>
    2de4:	39 3c       	cpi	r19, 0xC9	; 201
    2de6:	08 f0       	brcs	.+2      	; 0x2dea <__stack+0xbeb>
    2de8:	90 c0       	rjmp	.+288    	; 0x2f0a <__stack+0xd0b>
    2dea:	ef c0       	rjmp	.+478    	; 0x2fca <__stack+0xdcb>

			for(lAstpwm=lAstpwm,lAstpwm1=lAstpwm1,lAstpwm2=lAstpwm2,lAstpwm3=lAstpwm3;lAstpwm>pWm||lAstpwm1>pWm1||lAstpwm2>pWm2||lAstpwm3>pWm3;){		//decrease the speed step by step
				if (pWm<lAstpwm){
					lAstpwm-=step1;
    2dec:	f2 01       	movw	r30, r4
    2dee:	80 81       	ld	r24, Z
    2df0:	68 1b       	sub	r22, r24
    2df2:	e9 81       	ldd	r30, Y+1	; 0x01
    2df4:	fa 81       	ldd	r31, Y+2	; 0x02
    2df6:	60 83       	st	Z, r22
					analogWrite(pWmpin,constrain(lAstpwm,pWm,255));
    2df8:	70 e0       	ldi	r23, 0x00	; 0
    2dfa:	80 e0       	ldi	r24, 0x00	; 0
    2dfc:	90 e0       	ldi	r25, 0x00	; 0
    2dfe:	28 ec       	ldi	r18, 0xC8	; 200
    2e00:	30 e0       	ldi	r19, 0x00	; 0
    2e02:	40 e0       	ldi	r20, 0x00	; 0
    2e04:	50 e0       	ldi	r21, 0x00	; 0
    2e06:	0f 2e       	mov	r0, r31
    2e08:	ff ef       	ldi	r31, 0xFF	; 255
    2e0a:	ef 2e       	mov	r14, r31
    2e0c:	f0 e0       	ldi	r31, 0x00	; 0
    2e0e:	ff 2e       	mov	r15, r31
    2e10:	f0 e0       	ldi	r31, 0x00	; 0
    2e12:	0f 2f       	mov	r16, r31
    2e14:	f0 e0       	ldi	r31, 0x00	; 0
    2e16:	1f 2f       	mov	r17, r31
    2e18:	f0 2d       	mov	r31, r0
    2e1a:	0e 94 cc 05 	call	0xb98	; 0xb98 <_Z9constrainlll>
    2e1e:	eb 81       	ldd	r30, Y+3	; 0x03
    2e20:	fc 81       	ldd	r31, Y+4	; 0x04
    2e22:	80 81       	ld	r24, Z
    2e24:	0e 94 11 04 	call	0x822	; 0x822 <_Z11analogWritehh>
				}
				if (pWm1<lAstpwm1){
    2e28:	ec ed       	ldi	r30, 0xDC	; 220
    2e2a:	f2 e0       	ldi	r31, 0x02	; 2
    2e2c:	60 81       	ld	r22, Z
    2e2e:	69 3c       	cpi	r22, 0xC9	; 201
    2e30:	f0 f0       	brcs	.+60     	; 0x2e6e <__stack+0xc6f>
					lAstpwm1-=step2;
    2e32:	f1 01       	movw	r30, r2
    2e34:	80 81       	ld	r24, Z
    2e36:	68 1b       	sub	r22, r24
    2e38:	ed 81       	ldd	r30, Y+5	; 0x05
    2e3a:	fe 81       	ldd	r31, Y+6	; 0x06
    2e3c:	60 83       	st	Z, r22
					analogWrite(pWmpin1,constrain(lAstpwm1,pWm1,255));
    2e3e:	70 e0       	ldi	r23, 0x00	; 0
    2e40:	80 e0       	ldi	r24, 0x00	; 0
    2e42:	90 e0       	ldi	r25, 0x00	; 0
    2e44:	28 ec       	ldi	r18, 0xC8	; 200
    2e46:	30 e0       	ldi	r19, 0x00	; 0
    2e48:	40 e0       	ldi	r20, 0x00	; 0
    2e4a:	50 e0       	ldi	r21, 0x00	; 0
    2e4c:	0f 2e       	mov	r0, r31
    2e4e:	ff ef       	ldi	r31, 0xFF	; 255
    2e50:	ef 2e       	mov	r14, r31
    2e52:	f0 e0       	ldi	r31, 0x00	; 0
    2e54:	ff 2e       	mov	r15, r31
    2e56:	f0 e0       	ldi	r31, 0x00	; 0
    2e58:	0f 2f       	mov	r16, r31
    2e5a:	f0 e0       	ldi	r31, 0x00	; 0
    2e5c:	1f 2f       	mov	r17, r31
    2e5e:	f0 2d       	mov	r31, r0
    2e60:	0e 94 cc 05 	call	0xb98	; 0xb98 <_Z9constrainlll>
    2e64:	ef 81       	ldd	r30, Y+7	; 0x07
    2e66:	f8 85       	ldd	r31, Y+8	; 0x08
    2e68:	80 81       	ld	r24, Z
    2e6a:	0e 94 11 04 	call	0x822	; 0x822 <_Z11analogWritehh>
				}
				if (pWm2<lAstpwm2){
    2e6e:	f6 01       	movw	r30, r12
    2e70:	60 81       	ld	r22, Z
    2e72:	69 3c       	cpi	r22, 0xC9	; 201
    2e74:	f8 f0       	brcs	.+62     	; 0x2eb4 <__stack+0xcb5>
					lAstpwm2-=step3;
    2e76:	e1 ee       	ldi	r30, 0xE1	; 225
    2e78:	f2 e0       	ldi	r31, 0x02	; 2
    2e7a:	80 81       	ld	r24, Z
    2e7c:	68 1b       	sub	r22, r24
    2e7e:	e9 85       	ldd	r30, Y+9	; 0x09
    2e80:	fa 85       	ldd	r31, Y+10	; 0x0a
    2e82:	60 83       	st	Z, r22
					analogWrite(pWmpin2,constrain(lAstpwm2,pWm2,255));
    2e84:	70 e0       	ldi	r23, 0x00	; 0
    2e86:	80 e0       	ldi	r24, 0x00	; 0
    2e88:	90 e0       	ldi	r25, 0x00	; 0
    2e8a:	28 ec       	ldi	r18, 0xC8	; 200
    2e8c:	30 e0       	ldi	r19, 0x00	; 0
    2e8e:	40 e0       	ldi	r20, 0x00	; 0
    2e90:	50 e0       	ldi	r21, 0x00	; 0
    2e92:	0f 2e       	mov	r0, r31
    2e94:	ff ef       	ldi	r31, 0xFF	; 255
    2e96:	ef 2e       	mov	r14, r31
    2e98:	f0 e0       	ldi	r31, 0x00	; 0
    2e9a:	ff 2e       	mov	r15, r31
    2e9c:	f0 e0       	ldi	r31, 0x00	; 0
    2e9e:	0f 2f       	mov	r16, r31
    2ea0:	f0 e0       	ldi	r31, 0x00	; 0
    2ea2:	1f 2f       	mov	r17, r31
    2ea4:	f0 2d       	mov	r31, r0
    2ea6:	0e 94 cc 05 	call	0xb98	; 0xb98 <_Z9constrainlll>
    2eaa:	eb 85       	ldd	r30, Y+11	; 0x0b
    2eac:	fc 85       	ldd	r31, Y+12	; 0x0c
    2eae:	80 81       	ld	r24, Z
    2eb0:	0e 94 11 04 	call	0x822	; 0x822 <_Z11analogWritehh>
				}
				if (pWm3<lAstpwm3){
    2eb4:	f5 01       	movw	r30, r10
    2eb6:	60 81       	ld	r22, Z
    2eb8:	69 3c       	cpi	r22, 0xC9	; 201
    2eba:	f8 f0       	brcs	.+62     	; 0x2efa <__stack+0xcfb>
					lAstpwm3-=step4;
    2ebc:	e5 ee       	ldi	r30, 0xE5	; 229
    2ebe:	f2 e0       	ldi	r31, 0x02	; 2
    2ec0:	80 81       	ld	r24, Z
    2ec2:	68 1b       	sub	r22, r24
    2ec4:	ed 85       	ldd	r30, Y+13	; 0x0d
    2ec6:	fe 85       	ldd	r31, Y+14	; 0x0e
    2ec8:	60 83       	st	Z, r22
					analogWrite(pWmpin3,constrain(lAstpwm3,pWm3,255));
    2eca:	70 e0       	ldi	r23, 0x00	; 0
    2ecc:	80 e0       	ldi	r24, 0x00	; 0
    2ece:	90 e0       	ldi	r25, 0x00	; 0
    2ed0:	28 ec       	ldi	r18, 0xC8	; 200
    2ed2:	30 e0       	ldi	r19, 0x00	; 0
    2ed4:	40 e0       	ldi	r20, 0x00	; 0
    2ed6:	50 e0       	ldi	r21, 0x00	; 0
    2ed8:	0f 2e       	mov	r0, r31
    2eda:	ff ef       	ldi	r31, 0xFF	; 255
    2edc:	ef 2e       	mov	r14, r31
    2ede:	f0 e0       	ldi	r31, 0x00	; 0
    2ee0:	ff 2e       	mov	r15, r31
    2ee2:	f0 e0       	ldi	r31, 0x00	; 0
    2ee4:	0f 2f       	mov	r16, r31
    2ee6:	f0 e0       	ldi	r31, 0x00	; 0
    2ee8:	1f 2f       	mov	r17, r31
    2eea:	f0 2d       	mov	r31, r0
    2eec:	0e 94 cc 05 	call	0xb98	; 0xb98 <_Z9constrainlll>
    2ef0:	ef 85       	ldd	r30, Y+15	; 0x0f
    2ef2:	f8 89       	ldd	r31, Y+16	; 0x10
    2ef4:	80 81       	ld	r24, Z
    2ef6:	0e 94 11 04 	call	0x822	; 0x822 <_Z11analogWritehh>
				}
				delay(interval);		
    2efa:	f3 01       	movw	r30, r6
    2efc:	60 81       	ld	r22, Z
    2efe:	70 e0       	ldi	r23, 0x00	; 0
    2f00:	80 e0       	ldi	r24, 0x00	; 0
    2f02:	90 e0       	ldi	r25, 0x00	; 0
    2f04:	0e 94 4a 05 	call	0xa94	; 0xa94 <_Z5delaym>
    2f08:	4b c0       	rjmp	.+150    	; 0x2fa0 <__stack+0xda1>
			
		}

		else if(pWm<lAstpwm||pWm1<lAstpwm1||pWm2<lAstpwm2||pWm3<lAstpwm3){				//decelerate

			for(lAstpwm=lAstpwm,lAstpwm1=lAstpwm1,lAstpwm2=lAstpwm2,lAstpwm3=lAstpwm3;lAstpwm>pWm||lAstpwm1>pWm1||lAstpwm2>pWm2||lAstpwm3>pWm3;){		//decrease the speed step by step
    2f0a:	0f 2e       	mov	r0, r31
    2f0c:	f7 ed       	ldi	r31, 0xD7	; 215
    2f0e:	8f 2e       	mov	r8, r31
    2f10:	f2 e0       	ldi	r31, 0x02	; 2
    2f12:	9f 2e       	mov	r9, r31
    2f14:	f0 2d       	mov	r31, r0
				if (pWm<lAstpwm){
					lAstpwm-=step1;
    2f16:	0f 2e       	mov	r0, r31
    2f18:	f8 ed       	ldi	r31, 0xD8	; 216
    2f1a:	4f 2e       	mov	r4, r31
    2f1c:	f2 e0       	ldi	r31, 0x02	; 2
    2f1e:	5f 2e       	mov	r5, r31
    2f20:	f0 2d       	mov	r31, r0
    2f22:	a2 01       	movw	r20, r4
    2f24:	41 50       	subi	r20, 0x01	; 1
    2f26:	50 40       	sbci	r21, 0x00	; 0
    2f28:	5a 83       	std	Y+2, r21	; 0x02
    2f2a:	49 83       	std	Y+1, r20	; 0x01
					analogWrite(pWmpin,constrain(lAstpwm,pWm,255));
    2f2c:	c2 01       	movw	r24, r4
    2f2e:	02 97       	sbiw	r24, 0x02	; 2
    2f30:	9c 83       	std	Y+4, r25	; 0x04
    2f32:	8b 83       	std	Y+3, r24	; 0x03
			
		}

		else if(pWm<lAstpwm||pWm1<lAstpwm1||pWm2<lAstpwm2||pWm3<lAstpwm3){				//decelerate

			for(lAstpwm=lAstpwm,lAstpwm1=lAstpwm1,lAstpwm2=lAstpwm2,lAstpwm3=lAstpwm3;lAstpwm>pWm||lAstpwm1>pWm1||lAstpwm2>pWm2||lAstpwm3>pWm3;){		//decrease the speed step by step
    2f34:	0f 2e       	mov	r0, r31
    2f36:	f0 ee       	ldi	r31, 0xE0	; 224
    2f38:	cf 2e       	mov	r12, r31
    2f3a:	f2 e0       	ldi	r31, 0x02	; 2
    2f3c:	df 2e       	mov	r13, r31
    2f3e:	f0 2d       	mov	r31, r0
    2f40:	0f 2e       	mov	r0, r31
    2f42:	f4 ee       	ldi	r31, 0xE4	; 228
    2f44:	af 2e       	mov	r10, r31
    2f46:	f2 e0       	ldi	r31, 0x02	; 2
    2f48:	bf 2e       	mov	r11, r31
    2f4a:	f0 2d       	mov	r31, r0
				if (pWm<lAstpwm){
					lAstpwm-=step1;
					analogWrite(pWmpin,constrain(lAstpwm,pWm,255));
				}
				if (pWm1<lAstpwm1){
					lAstpwm1-=step2;
    2f4c:	0f 2e       	mov	r0, r31
    2f4e:	fd ed       	ldi	r31, 0xDD	; 221
    2f50:	2f 2e       	mov	r2, r31
    2f52:	f2 e0       	ldi	r31, 0x02	; 2
    2f54:	3f 2e       	mov	r3, r31
    2f56:	f0 2d       	mov	r31, r0
    2f58:	f1 01       	movw	r30, r2
    2f5a:	31 97       	sbiw	r30, 0x01	; 1
    2f5c:	fe 83       	std	Y+6, r31	; 0x06
    2f5e:	ed 83       	std	Y+5, r30	; 0x05
					analogWrite(pWmpin1,constrain(lAstpwm1,pWm1,255));
    2f60:	a1 01       	movw	r20, r2
    2f62:	42 50       	subi	r20, 0x02	; 2
    2f64:	50 40       	sbci	r21, 0x00	; 0
    2f66:	58 87       	std	Y+8, r21	; 0x08
    2f68:	4f 83       	std	Y+7, r20	; 0x07
				}
				if (pWm2<lAstpwm2){
					lAstpwm2-=step3;
    2f6a:	81 ee       	ldi	r24, 0xE1	; 225
    2f6c:	92 e0       	ldi	r25, 0x02	; 2
    2f6e:	01 97       	sbiw	r24, 0x01	; 1
    2f70:	9a 87       	std	Y+10, r25	; 0x0a
    2f72:	89 87       	std	Y+9, r24	; 0x09
					analogWrite(pWmpin2,constrain(lAstpwm2,pWm2,255));
    2f74:	e1 ee       	ldi	r30, 0xE1	; 225
    2f76:	f2 e0       	ldi	r31, 0x02	; 2
    2f78:	32 97       	sbiw	r30, 0x02	; 2
    2f7a:	fc 87       	std	Y+12, r31	; 0x0c
    2f7c:	eb 87       	std	Y+11, r30	; 0x0b
				}
				if (pWm3<lAstpwm3){
					lAstpwm3-=step4;
    2f7e:	45 ee       	ldi	r20, 0xE5	; 229
    2f80:	52 e0       	ldi	r21, 0x02	; 2
    2f82:	41 50       	subi	r20, 0x01	; 1
    2f84:	50 40       	sbci	r21, 0x00	; 0
    2f86:	5e 87       	std	Y+14, r21	; 0x0e
    2f88:	4d 87       	std	Y+13, r20	; 0x0d
					analogWrite(pWmpin3,constrain(lAstpwm3,pWm3,255));
    2f8a:	85 ee       	ldi	r24, 0xE5	; 229
    2f8c:	92 e0       	ldi	r25, 0x02	; 2
    2f8e:	02 97       	sbiw	r24, 0x02	; 2
    2f90:	98 8b       	std	Y+16, r25	; 0x10
    2f92:	8f 87       	std	Y+15, r24	; 0x0f
				}
				delay(interval);		
    2f94:	0f 2e       	mov	r0, r31
    2f96:	f9 ed       	ldi	r31, 0xD9	; 217
    2f98:	6f 2e       	mov	r6, r31
    2f9a:	f2 e0       	ldi	r31, 0x02	; 2
    2f9c:	7f 2e       	mov	r7, r31
    2f9e:	f0 2d       	mov	r31, r0
			
		}

		else if(pWm<lAstpwm||pWm1<lAstpwm1||pWm2<lAstpwm2||pWm3<lAstpwm3){				//decelerate

			for(lAstpwm=lAstpwm,lAstpwm1=lAstpwm1,lAstpwm2=lAstpwm2,lAstpwm3=lAstpwm3;lAstpwm>pWm||lAstpwm1>pWm1||lAstpwm2>pWm2||lAstpwm3>pWm3;){		//decrease the speed step by step
    2fa0:	f4 01       	movw	r30, r8
    2fa2:	60 81       	ld	r22, Z
    2fa4:	69 3c       	cpi	r22, 0xC9	; 201
    2fa6:	08 f0       	brcs	.+2      	; 0x2faa <__stack+0xdab>
    2fa8:	21 cf       	rjmp	.-446    	; 0x2dec <__stack+0xbed>
    2faa:	ec ed       	ldi	r30, 0xDC	; 220
    2fac:	f2 e0       	ldi	r31, 0x02	; 2
    2fae:	80 81       	ld	r24, Z
    2fb0:	89 3c       	cpi	r24, 0xC9	; 201
    2fb2:	08 f0       	brcs	.+2      	; 0x2fb6 <__stack+0xdb7>
    2fb4:	39 cf       	rjmp	.-398    	; 0x2e28 <__stack+0xc29>
    2fb6:	f6 01       	movw	r30, r12
    2fb8:	80 81       	ld	r24, Z
    2fba:	89 3c       	cpi	r24, 0xC9	; 201
    2fbc:	08 f0       	brcs	.+2      	; 0x2fc0 <__stack+0xdc1>
    2fbe:	34 cf       	rjmp	.-408    	; 0x2e28 <__stack+0xc29>
    2fc0:	f5 01       	movw	r30, r10
    2fc2:	80 81       	ld	r24, Z
    2fc4:	89 3c       	cpi	r24, 0xC9	; 201
    2fc6:	a8 f0       	brcs	.+42     	; 0x2ff2 <__stack+0xdf3>
    2fc8:	2f cf       	rjmp	.-418    	; 0x2e28 <__stack+0xc29>
				delay(interval);		
			}
		}

		else{		//no change
			analogWrite(pWmpin,pWm);
    2fca:	80 91 d6 02 	lds	r24, 0x02D6
    2fce:	68 ec       	ldi	r22, 0xC8	; 200
    2fd0:	0e 94 11 04 	call	0x822	; 0x822 <_Z11analogWritehh>
			analogWrite(pWmpin1,pWm1);
    2fd4:	80 91 db 02 	lds	r24, 0x02DB
    2fd8:	68 ec       	ldi	r22, 0xC8	; 200
    2fda:	0e 94 11 04 	call	0x822	; 0x822 <_Z11analogWritehh>
			analogWrite(pWmpin2,pWm2);
    2fde:	80 91 df 02 	lds	r24, 0x02DF
    2fe2:	68 ec       	ldi	r22, 0xC8	; 200
    2fe4:	0e 94 11 04 	call	0x822	; 0x822 <_Z11analogWritehh>
			analogWrite(pWmpin3,pWm3);
    2fe8:	80 91 e3 02 	lds	r24, 0x02E3
    2fec:	68 ec       	ldi	r22, 0xC8	; 200
    2fee:	0e 94 11 04 	call	0x822	; 0x822 <_Z11analogWritehh>
	motors.direction(1,1,1,1);
	motors.drive(200,200,200,200);
	d='b';
    2ff2:	82 e6       	ldi	r24, 0x62	; 98
    2ff4:	80 93 d4 02 	sts	0x02D4, r24
}
    2ff8:	60 96       	adiw	r28, 0x10	; 16
    2ffa:	0f b6       	in	r0, 0x3f	; 63
    2ffc:	f8 94       	cli
    2ffe:	de bf       	out	0x3e, r29	; 62
    3000:	0f be       	out	0x3f, r0	; 63
    3002:	cd bf       	out	0x3d, r28	; 61
    3004:	cf 91       	pop	r28
    3006:	df 91       	pop	r29
    3008:	1f 91       	pop	r17
    300a:	0f 91       	pop	r16
    300c:	ff 90       	pop	r15
    300e:	ef 90       	pop	r14
    3010:	df 90       	pop	r13
    3012:	cf 90       	pop	r12
    3014:	bf 90       	pop	r11
    3016:	af 90       	pop	r10
    3018:	9f 90       	pop	r9
    301a:	8f 90       	pop	r8
    301c:	7f 90       	pop	r7
    301e:	6f 90       	pop	r6
    3020:	5f 90       	pop	r5
    3022:	4f 90       	pop	r4
    3024:	3f 90       	pop	r3
    3026:	2f 90       	pop	r2
    3028:	08 95       	ret

0000302a <_Z5setupv>:

void setup(){
    302a:	cf 93       	push	r28
    302c:	df 93       	push	r29
public:
  uint8_t pIn;
  
  void attach(uint8_t nUm)       //F_CPU=clock frequency and num=pin no.to be attached
  {
    iCr=19999;
    302e:	8f e1       	ldi	r24, 0x1F	; 31
    3030:	9e e4       	ldi	r25, 0x4E	; 78
    3032:	90 93 c9 02 	sts	0x02C9, r25
    3036:	80 93 c8 02 	sts	0x02C8, r24
    pIn=nUm;
    303a:	2b e0       	ldi	r18, 0x0B	; 11
    303c:	20 93 ca 02 	sts	0x02CA, r18
    switch(pIn)
    {
     case 11 :                           //OC1A
        DDRB|=(1<<PB5); // PORTB as OUTPUT
    3040:	25 9a       	sbi	0x04, 5	; 4
        TCCR1A |= (1<<WGM11) | (1<<COM1A1) | (1<<COM1A0);
    3042:	a0 e8       	ldi	r26, 0x80	; 128
    3044:	b0 e0       	ldi	r27, 0x00	; 0
    3046:	2c 91       	ld	r18, X
    3048:	22 6c       	ori	r18, 0xC2	; 194
    304a:	2c 93       	st	X, r18
        TCCR1B |= (1<<WGM12) | (1<<WGM13);
    304c:	e1 e8       	ldi	r30, 0x81	; 129
    304e:	f0 e0       	ldi	r31, 0x00	; 0
    3050:	20 81       	ld	r18, Z
    3052:	28 61       	ori	r18, 0x18	; 24
    3054:	20 83       	st	Z, r18
        TCCR1B |= (1<<CS10);
    3056:	20 81       	ld	r18, Z
    3058:	21 60       	ori	r18, 0x01	; 1
    305a:	20 83       	st	Z, r18
        ICR1=iCr;                    //generating 20msec pulse (pwm method)
    305c:	c6 e8       	ldi	r28, 0x86	; 134
    305e:	d0 e0       	ldi	r29, 0x00	; 0
    3060:	99 83       	std	Y+1, r25	; 0x01
    3062:	88 83       	st	Y, r24
public:
  uint8_t pIn;
  
  void attach(uint8_t nUm)       //F_CPU=clock frequency and num=pin no.to be attached
  {
    iCr=19999;
    3064:	90 93 cc 02 	sts	0x02CC, r25
    3068:	80 93 cb 02 	sts	0x02CB, r24
    pIn=nUm;
    306c:	2c e0       	ldi	r18, 0x0C	; 12
    306e:	20 93 cd 02 	sts	0x02CD, r18
        TCCR1B |= (1<<CS10);
        ICR1=iCr;                    //generating 20msec pulse (pwm method)
        break; 

     case 12 :                            //OC1B
        DDRB|=(1<<PB6); // PORTB as OUTPUT
    3072:	26 9a       	sbi	0x04, 6	; 4
        TCCR1A|=(1<<WGM11)|(1<<COM1B1)|(1<<COM1B0);  //SETTING PRESCALAR AS 64 
    3074:	2c 91       	ld	r18, X
    3076:	22 63       	ori	r18, 0x32	; 50
    3078:	2c 93       	st	X, r18
        TCCR1B|=(1<<WGM12)|(1<<WGM13)|(1<<CS10); //FAST PWM MODE
    307a:	20 81       	ld	r18, Z
    307c:	29 61       	ori	r18, 0x19	; 25
    307e:	20 83       	st	Z, r18
        ICR1=iCr;                    //generating 20msec pulse (pwm method)
    3080:	99 83       	std	Y+1, r25	; 0x01
    3082:	88 83       	st	Y, r24
public:
  uint8_t pIn;
  
  void attach(uint8_t nUm)       //F_CPU=clock frequency and num=pin no.to be attached
  {
    iCr=19999;
    3084:	90 93 cf 02 	sts	0x02CF, r25
    3088:	80 93 ce 02 	sts	0x02CE, r24
    pIn=nUm;
    308c:	25 e0       	ldi	r18, 0x05	; 5
    308e:	20 93 d0 02 	sts	0x02D0, r18
        TCCR1B|=(1<<WGM12)|(1<<WGM13)|(1<<CS10); //FAST PWM MODE
        ICR1=iCr;                    //generating 20msec pulse (pwm method)
        break;

      case 5 :                            //OC3A
        DDRE|=(1<<PE3); // PORTB as OUTPUT
    3092:	6b 9a       	sbi	0x0d, 3	; 13
        TCCR3A|=(1<<WGM31)|(1<<COM3A1)|(1<<COM3A0);  //SETTING PRESCALAR AS 64 
    3094:	a0 e9       	ldi	r26, 0x90	; 144
    3096:	b0 e0       	ldi	r27, 0x00	; 0
    3098:	2c 91       	ld	r18, X
    309a:	22 6c       	ori	r18, 0xC2	; 194
    309c:	2c 93       	st	X, r18
        TCCR3B|=(1<<WGM32)|(1<<WGM33)|(1<<CS30); //FAST PWM MODE
    309e:	e1 e9       	ldi	r30, 0x91	; 145
    30a0:	f0 e0       	ldi	r31, 0x00	; 0
    30a2:	20 81       	ld	r18, Z
    30a4:	29 61       	ori	r18, 0x19	; 25
    30a6:	20 83       	st	Z, r18
        ICR3=iCr;                    //generating 20msec pulse (pwm method)
    30a8:	c6 e9       	ldi	r28, 0x96	; 150
    30aa:	d0 e0       	ldi	r29, 0x00	; 0
    30ac:	99 83       	std	Y+1, r25	; 0x01
    30ae:	88 83       	st	Y, r24
public:
  uint8_t pIn;
  
  void attach(uint8_t nUm)       //F_CPU=clock frequency and num=pin no.to be attached
  {
    iCr=19999;
    30b0:	90 93 d2 02 	sts	0x02D2, r25
    30b4:	80 93 d1 02 	sts	0x02D1, r24
    pIn=nUm;
    30b8:	22 e0       	ldi	r18, 0x02	; 2
    30ba:	20 93 d3 02 	sts	0x02D3, r18
        TCCR3B|=(1<<WGM32)|(1<<WGM33)|(1<<CS30); //FAST PWM MODE
        ICR3=iCr;                    //generating 20msec pulse (pwm method)
        break;

      case 2 :                            //OC3B
        DDRE|=(1<<PE4); // PORTB as OUTPUT
    30be:	6c 9a       	sbi	0x0d, 4	; 13
        TCCR3A|=(1<<WGM31)|(1<<COM3B1)|(1<<COM3B0);  //SETTING PRESCALAR AS 64 
    30c0:	2c 91       	ld	r18, X
    30c2:	22 63       	ori	r18, 0x32	; 50
    30c4:	2c 93       	st	X, r18
        TCCR3B|=(1<<WGM32)|(1<<WGM33)|(1<<CS30); //FAST PWM MODE
    30c6:	20 81       	ld	r18, Z
    30c8:	29 61       	ori	r18, 0x19	; 25
    30ca:	20 83       	st	Z, r18
        ICR3=iCr;                    //generating 20msec pulse (pwm method)
    30cc:	99 83       	std	Y+1, r25	; 0x01
    30ce:	88 83       	st	Y, r24
	swerve1.attach(servoPwm1);
	swerve2.attach(servoPwm2);
	swerve3.attach(servoPwm3);
	swerve4.attach(servoPwm4);
}
    30d0:	df 91       	pop	r29
    30d2:	cf 91       	pop	r28
    30d4:	08 95       	ret

000030d6 <_Z4loopv>:

void loop(){
	//XXX: Check if servo is stalling, if yes don't freak out just make sure it doesn't stall for long time. Check if heating
	forward();
    30d6:	0e 94 69 08 	call	0x10d2	; 0x10d2 <_Z7forwardv>
	delay(1000);
    30da:	68 ee       	ldi	r22, 0xE8	; 232
    30dc:	73 e0       	ldi	r23, 0x03	; 3
    30de:	80 e0       	ldi	r24, 0x00	; 0
    30e0:	90 e0       	ldi	r25, 0x00	; 0
    30e2:	0e 94 4a 05 	call	0xa94	; 0xa94 <_Z5delaym>
	backward();
    30e6:	0e 94 3f 10 	call	0x207e	; 0x207e <_Z8backwardv>
	delay(1000);
    30ea:	68 ee       	ldi	r22, 0xE8	; 232
    30ec:	73 e0       	ldi	r23, 0x03	; 3
    30ee:	80 e0       	ldi	r24, 0x00	; 0
    30f0:	90 e0       	ldi	r25, 0x00	; 0
    30f2:	0e 94 4a 05 	call	0xa94	; 0xa94 <_Z5delaym>
}
    30f6:	08 95       	ret

000030f8 <main>:
{
	uSerfun();
}*/
int main(){
	//tinit();
	setup();
    30f8:	0e 94 15 18 	call	0x302a	; 0x302a <_Z5setupv>
	while(1){
		loop();
    30fc:	0e 94 6b 18 	call	0x30d6	; 0x30d6 <_Z4loopv>
    3100:	fd cf       	rjmp	.-6      	; 0x30fc <main+0x4>

00003102 <_GLOBAL__I_tImer2_millis>:
		step2=5;
		step3=5;
		interval=10;
  	}
  	Cytron(uint8_t getdIrpin, uint8_t getpWmpin, uint8_t getdIrpin1, uint8_t getpWmpin1, uint8_t getdIrpin2, uint8_t getpWmpin2, uint8_t getdIrpin3, uint8_t getpWmpin3){     //constructor function takes direction and pwm pins for cytron
	    pWmpin=getpWmpin;
    3102:	84 e0       	ldi	r24, 0x04	; 4
    3104:	80 93 d6 02 	sts	0x02D6, r24
	    dIrpin=getdIrpin;
    3108:	e6 ed       	ldi	r30, 0xD6	; 214
    310a:	f2 e0       	ldi	r31, 0x02	; 2
    310c:	8e e1       	ldi	r24, 0x1E	; 30
    310e:	82 93       	st	-Z, r24
	    pWmpin1=getpWmpin1;
    3110:	8d e0       	ldi	r24, 0x0D	; 13
    3112:	86 83       	std	Z+6, r24	; 0x06
	    dIrpin1=getdIrpin1;
    3114:	8f e1       	ldi	r24, 0x1F	; 31
    3116:	85 83       	std	Z+5, r24	; 0x05
	    pWmpin2=getpWmpin2;
    3118:	9a e0       	ldi	r25, 0x0A	; 10
    311a:	92 87       	std	Z+10, r25	; 0x0a
	    dIrpin2=getdIrpin2;
    311c:	80 e2       	ldi	r24, 0x20	; 32
    311e:	81 87       	std	Z+9, r24	; 0x09
	    pWmpin3=getpWmpin3;
    3120:	89 e0       	ldi	r24, 0x09	; 9
    3122:	86 87       	std	Z+14, r24	; 0x0e
	    dIrpin3=getdIrpin3;
    3124:	81 e2       	ldi	r24, 0x21	; 33
    3126:	85 87       	std	Z+13, r24	; 0x0d
	    lAstpwm=0;
    3128:	12 82       	std	Z+2, r1	; 0x02
		lAstpwm1=0;
    312a:	17 82       	std	Z+7, r1	; 0x07
		lAstpwm2=0;
    312c:	13 86       	std	Z+11, r1	; 0x0b
		lAstpwm3=0;
    312e:	17 86       	std	Z+15, r1	; 0x0f
		step1=5;
    3130:	85 e0       	ldi	r24, 0x05	; 5
    3132:	83 83       	std	Z+3, r24	; 0x03
		step2=5;
    3134:	80 87       	std	Z+8, r24	; 0x08
		step3=5;
    3136:	84 87       	std	Z+12, r24	; 0x0c
		step4=5;
    3138:	80 8b       	std	Z+16, r24	; 0x10
		interval=10;
    313a:	94 83       	std	Z+4, r25	; 0x04
    313c:	08 95       	ret

0000313e <__divsf3>:
    313e:	0c d0       	rcall	.+24     	; 0x3158 <__divsf3x>
    3140:	eb c0       	rjmp	.+470    	; 0x3318 <__fp_round>
    3142:	e3 d0       	rcall	.+454    	; 0x330a <__fp_pscB>
    3144:	40 f0       	brcs	.+16     	; 0x3156 <__divsf3+0x18>
    3146:	da d0       	rcall	.+436    	; 0x32fc <__fp_pscA>
    3148:	30 f0       	brcs	.+12     	; 0x3156 <__divsf3+0x18>
    314a:	21 f4       	brne	.+8      	; 0x3154 <__divsf3+0x16>
    314c:	5f 3f       	cpi	r21, 0xFF	; 255
    314e:	19 f0       	breq	.+6      	; 0x3156 <__divsf3+0x18>
    3150:	cc c0       	rjmp	.+408    	; 0x32ea <__fp_inf>
    3152:	51 11       	cpse	r21, r1
    3154:	15 c1       	rjmp	.+554    	; 0x3380 <__fp_szero>
    3156:	cf c0       	rjmp	.+414    	; 0x32f6 <__fp_nan>

00003158 <__divsf3x>:
    3158:	f0 d0       	rcall	.+480    	; 0x333a <__fp_split3>
    315a:	98 f3       	brcs	.-26     	; 0x3142 <__divsf3+0x4>

0000315c <__divsf3_pse>:
    315c:	99 23       	and	r25, r25
    315e:	c9 f3       	breq	.-14     	; 0x3152 <__divsf3+0x14>
    3160:	55 23       	and	r21, r21
    3162:	b1 f3       	breq	.-20     	; 0x3150 <__divsf3+0x12>
    3164:	95 1b       	sub	r25, r21
    3166:	55 0b       	sbc	r21, r21
    3168:	bb 27       	eor	r27, r27
    316a:	aa 27       	eor	r26, r26
    316c:	62 17       	cp	r22, r18
    316e:	73 07       	cpc	r23, r19
    3170:	84 07       	cpc	r24, r20
    3172:	38 f0       	brcs	.+14     	; 0x3182 <__divsf3_pse+0x26>
    3174:	9f 5f       	subi	r25, 0xFF	; 255
    3176:	5f 4f       	sbci	r21, 0xFF	; 255
    3178:	22 0f       	add	r18, r18
    317a:	33 1f       	adc	r19, r19
    317c:	44 1f       	adc	r20, r20
    317e:	aa 1f       	adc	r26, r26
    3180:	a9 f3       	breq	.-22     	; 0x316c <__divsf3_pse+0x10>
    3182:	33 d0       	rcall	.+102    	; 0x31ea <__divsf3_pse+0x8e>
    3184:	0e 2e       	mov	r0, r30
    3186:	3a f0       	brmi	.+14     	; 0x3196 <__divsf3_pse+0x3a>
    3188:	e0 e8       	ldi	r30, 0x80	; 128
    318a:	30 d0       	rcall	.+96     	; 0x31ec <__divsf3_pse+0x90>
    318c:	91 50       	subi	r25, 0x01	; 1
    318e:	50 40       	sbci	r21, 0x00	; 0
    3190:	e6 95       	lsr	r30
    3192:	00 1c       	adc	r0, r0
    3194:	ca f7       	brpl	.-14     	; 0x3188 <__divsf3_pse+0x2c>
    3196:	29 d0       	rcall	.+82     	; 0x31ea <__divsf3_pse+0x8e>
    3198:	fe 2f       	mov	r31, r30
    319a:	27 d0       	rcall	.+78     	; 0x31ea <__divsf3_pse+0x8e>
    319c:	66 0f       	add	r22, r22
    319e:	77 1f       	adc	r23, r23
    31a0:	88 1f       	adc	r24, r24
    31a2:	bb 1f       	adc	r27, r27
    31a4:	26 17       	cp	r18, r22
    31a6:	37 07       	cpc	r19, r23
    31a8:	48 07       	cpc	r20, r24
    31aa:	ab 07       	cpc	r26, r27
    31ac:	b0 e8       	ldi	r27, 0x80	; 128
    31ae:	09 f0       	breq	.+2      	; 0x31b2 <__divsf3_pse+0x56>
    31b0:	bb 0b       	sbc	r27, r27
    31b2:	80 2d       	mov	r24, r0
    31b4:	bf 01       	movw	r22, r30
    31b6:	ff 27       	eor	r31, r31
    31b8:	93 58       	subi	r25, 0x83	; 131
    31ba:	5f 4f       	sbci	r21, 0xFF	; 255
    31bc:	2a f0       	brmi	.+10     	; 0x31c8 <__divsf3_pse+0x6c>
    31be:	9e 3f       	cpi	r25, 0xFE	; 254
    31c0:	51 05       	cpc	r21, r1
    31c2:	68 f0       	brcs	.+26     	; 0x31de <__divsf3_pse+0x82>
    31c4:	92 c0       	rjmp	.+292    	; 0x32ea <__fp_inf>
    31c6:	dc c0       	rjmp	.+440    	; 0x3380 <__fp_szero>
    31c8:	5f 3f       	cpi	r21, 0xFF	; 255
    31ca:	ec f3       	brlt	.-6      	; 0x31c6 <__divsf3_pse+0x6a>
    31cc:	98 3e       	cpi	r25, 0xE8	; 232
    31ce:	dc f3       	brlt	.-10     	; 0x31c6 <__divsf3_pse+0x6a>
    31d0:	86 95       	lsr	r24
    31d2:	77 95       	ror	r23
    31d4:	67 95       	ror	r22
    31d6:	b7 95       	ror	r27
    31d8:	f7 95       	ror	r31
    31da:	9f 5f       	subi	r25, 0xFF	; 255
    31dc:	c9 f7       	brne	.-14     	; 0x31d0 <__divsf3_pse+0x74>
    31de:	88 0f       	add	r24, r24
    31e0:	91 1d       	adc	r25, r1
    31e2:	96 95       	lsr	r25
    31e4:	87 95       	ror	r24
    31e6:	97 f9       	bld	r25, 7
    31e8:	08 95       	ret
    31ea:	e1 e0       	ldi	r30, 0x01	; 1
    31ec:	66 0f       	add	r22, r22
    31ee:	77 1f       	adc	r23, r23
    31f0:	88 1f       	adc	r24, r24
    31f2:	bb 1f       	adc	r27, r27
    31f4:	62 17       	cp	r22, r18
    31f6:	73 07       	cpc	r23, r19
    31f8:	84 07       	cpc	r24, r20
    31fa:	ba 07       	cpc	r27, r26
    31fc:	20 f0       	brcs	.+8      	; 0x3206 <__divsf3_pse+0xaa>
    31fe:	62 1b       	sub	r22, r18
    3200:	73 0b       	sbc	r23, r19
    3202:	84 0b       	sbc	r24, r20
    3204:	ba 0b       	sbc	r27, r26
    3206:	ee 1f       	adc	r30, r30
    3208:	88 f7       	brcc	.-30     	; 0x31ec <__divsf3_pse+0x90>
    320a:	e0 95       	com	r30
    320c:	08 95       	ret

0000320e <__fixsfsi>:
    320e:	04 d0       	rcall	.+8      	; 0x3218 <__fixunssfsi>
    3210:	68 94       	set
    3212:	b1 11       	cpse	r27, r1
    3214:	b5 c0       	rjmp	.+362    	; 0x3380 <__fp_szero>
    3216:	08 95       	ret

00003218 <__fixunssfsi>:
    3218:	98 d0       	rcall	.+304    	; 0x334a <__fp_splitA>
    321a:	88 f0       	brcs	.+34     	; 0x323e <__fixunssfsi+0x26>
    321c:	9f 57       	subi	r25, 0x7F	; 127
    321e:	90 f0       	brcs	.+36     	; 0x3244 <__fixunssfsi+0x2c>
    3220:	b9 2f       	mov	r27, r25
    3222:	99 27       	eor	r25, r25
    3224:	b7 51       	subi	r27, 0x17	; 23
    3226:	a0 f0       	brcs	.+40     	; 0x3250 <__fixunssfsi+0x38>
    3228:	d1 f0       	breq	.+52     	; 0x325e <__fixunssfsi+0x46>
    322a:	66 0f       	add	r22, r22
    322c:	77 1f       	adc	r23, r23
    322e:	88 1f       	adc	r24, r24
    3230:	99 1f       	adc	r25, r25
    3232:	1a f0       	brmi	.+6      	; 0x323a <__fixunssfsi+0x22>
    3234:	ba 95       	dec	r27
    3236:	c9 f7       	brne	.-14     	; 0x322a <__fixunssfsi+0x12>
    3238:	12 c0       	rjmp	.+36     	; 0x325e <__fixunssfsi+0x46>
    323a:	b1 30       	cpi	r27, 0x01	; 1
    323c:	81 f0       	breq	.+32     	; 0x325e <__fixunssfsi+0x46>
    323e:	9f d0       	rcall	.+318    	; 0x337e <__fp_zero>
    3240:	b1 e0       	ldi	r27, 0x01	; 1
    3242:	08 95       	ret
    3244:	9c c0       	rjmp	.+312    	; 0x337e <__fp_zero>
    3246:	67 2f       	mov	r22, r23
    3248:	78 2f       	mov	r23, r24
    324a:	88 27       	eor	r24, r24
    324c:	b8 5f       	subi	r27, 0xF8	; 248
    324e:	39 f0       	breq	.+14     	; 0x325e <__fixunssfsi+0x46>
    3250:	b9 3f       	cpi	r27, 0xF9	; 249
    3252:	cc f3       	brlt	.-14     	; 0x3246 <__fixunssfsi+0x2e>
    3254:	86 95       	lsr	r24
    3256:	77 95       	ror	r23
    3258:	67 95       	ror	r22
    325a:	b3 95       	inc	r27
    325c:	d9 f7       	brne	.-10     	; 0x3254 <__fixunssfsi+0x3c>
    325e:	3e f4       	brtc	.+14     	; 0x326e <__fixunssfsi+0x56>
    3260:	90 95       	com	r25
    3262:	80 95       	com	r24
    3264:	70 95       	com	r23
    3266:	61 95       	neg	r22
    3268:	7f 4f       	sbci	r23, 0xFF	; 255
    326a:	8f 4f       	sbci	r24, 0xFF	; 255
    326c:	9f 4f       	sbci	r25, 0xFF	; 255
    326e:	08 95       	ret

00003270 <__floatunsisf>:
    3270:	e8 94       	clt
    3272:	09 c0       	rjmp	.+18     	; 0x3286 <__floatsisf+0x12>

00003274 <__floatsisf>:
    3274:	97 fb       	bst	r25, 7
    3276:	3e f4       	brtc	.+14     	; 0x3286 <__floatsisf+0x12>
    3278:	90 95       	com	r25
    327a:	80 95       	com	r24
    327c:	70 95       	com	r23
    327e:	61 95       	neg	r22
    3280:	7f 4f       	sbci	r23, 0xFF	; 255
    3282:	8f 4f       	sbci	r24, 0xFF	; 255
    3284:	9f 4f       	sbci	r25, 0xFF	; 255
    3286:	99 23       	and	r25, r25
    3288:	a9 f0       	breq	.+42     	; 0x32b4 <__floatsisf+0x40>
    328a:	f9 2f       	mov	r31, r25
    328c:	96 e9       	ldi	r25, 0x96	; 150
    328e:	bb 27       	eor	r27, r27
    3290:	93 95       	inc	r25
    3292:	f6 95       	lsr	r31
    3294:	87 95       	ror	r24
    3296:	77 95       	ror	r23
    3298:	67 95       	ror	r22
    329a:	b7 95       	ror	r27
    329c:	f1 11       	cpse	r31, r1
    329e:	f8 cf       	rjmp	.-16     	; 0x3290 <__floatsisf+0x1c>
    32a0:	fa f4       	brpl	.+62     	; 0x32e0 <__floatsisf+0x6c>
    32a2:	bb 0f       	add	r27, r27
    32a4:	11 f4       	brne	.+4      	; 0x32aa <__floatsisf+0x36>
    32a6:	60 ff       	sbrs	r22, 0
    32a8:	1b c0       	rjmp	.+54     	; 0x32e0 <__floatsisf+0x6c>
    32aa:	6f 5f       	subi	r22, 0xFF	; 255
    32ac:	7f 4f       	sbci	r23, 0xFF	; 255
    32ae:	8f 4f       	sbci	r24, 0xFF	; 255
    32b0:	9f 4f       	sbci	r25, 0xFF	; 255
    32b2:	16 c0       	rjmp	.+44     	; 0x32e0 <__floatsisf+0x6c>
    32b4:	88 23       	and	r24, r24
    32b6:	11 f0       	breq	.+4      	; 0x32bc <__floatsisf+0x48>
    32b8:	96 e9       	ldi	r25, 0x96	; 150
    32ba:	11 c0       	rjmp	.+34     	; 0x32de <__floatsisf+0x6a>
    32bc:	77 23       	and	r23, r23
    32be:	21 f0       	breq	.+8      	; 0x32c8 <__floatsisf+0x54>
    32c0:	9e e8       	ldi	r25, 0x8E	; 142
    32c2:	87 2f       	mov	r24, r23
    32c4:	76 2f       	mov	r23, r22
    32c6:	05 c0       	rjmp	.+10     	; 0x32d2 <__floatsisf+0x5e>
    32c8:	66 23       	and	r22, r22
    32ca:	71 f0       	breq	.+28     	; 0x32e8 <__floatsisf+0x74>
    32cc:	96 e8       	ldi	r25, 0x86	; 134
    32ce:	86 2f       	mov	r24, r22
    32d0:	70 e0       	ldi	r23, 0x00	; 0
    32d2:	60 e0       	ldi	r22, 0x00	; 0
    32d4:	2a f0       	brmi	.+10     	; 0x32e0 <__floatsisf+0x6c>
    32d6:	9a 95       	dec	r25
    32d8:	66 0f       	add	r22, r22
    32da:	77 1f       	adc	r23, r23
    32dc:	88 1f       	adc	r24, r24
    32de:	da f7       	brpl	.-10     	; 0x32d6 <__floatsisf+0x62>
    32e0:	88 0f       	add	r24, r24
    32e2:	96 95       	lsr	r25
    32e4:	87 95       	ror	r24
    32e6:	97 f9       	bld	r25, 7
    32e8:	08 95       	ret

000032ea <__fp_inf>:
    32ea:	97 f9       	bld	r25, 7
    32ec:	9f 67       	ori	r25, 0x7F	; 127
    32ee:	80 e8       	ldi	r24, 0x80	; 128
    32f0:	70 e0       	ldi	r23, 0x00	; 0
    32f2:	60 e0       	ldi	r22, 0x00	; 0
    32f4:	08 95       	ret

000032f6 <__fp_nan>:
    32f6:	9f ef       	ldi	r25, 0xFF	; 255
    32f8:	80 ec       	ldi	r24, 0xC0	; 192
    32fa:	08 95       	ret

000032fc <__fp_pscA>:
    32fc:	00 24       	eor	r0, r0
    32fe:	0a 94       	dec	r0
    3300:	16 16       	cp	r1, r22
    3302:	17 06       	cpc	r1, r23
    3304:	18 06       	cpc	r1, r24
    3306:	09 06       	cpc	r0, r25
    3308:	08 95       	ret

0000330a <__fp_pscB>:
    330a:	00 24       	eor	r0, r0
    330c:	0a 94       	dec	r0
    330e:	12 16       	cp	r1, r18
    3310:	13 06       	cpc	r1, r19
    3312:	14 06       	cpc	r1, r20
    3314:	05 06       	cpc	r0, r21
    3316:	08 95       	ret

00003318 <__fp_round>:
    3318:	09 2e       	mov	r0, r25
    331a:	03 94       	inc	r0
    331c:	00 0c       	add	r0, r0
    331e:	11 f4       	brne	.+4      	; 0x3324 <__fp_round+0xc>
    3320:	88 23       	and	r24, r24
    3322:	52 f0       	brmi	.+20     	; 0x3338 <__fp_round+0x20>
    3324:	bb 0f       	add	r27, r27
    3326:	40 f4       	brcc	.+16     	; 0x3338 <__fp_round+0x20>
    3328:	bf 2b       	or	r27, r31
    332a:	11 f4       	brne	.+4      	; 0x3330 <__fp_round+0x18>
    332c:	60 ff       	sbrs	r22, 0
    332e:	04 c0       	rjmp	.+8      	; 0x3338 <__fp_round+0x20>
    3330:	6f 5f       	subi	r22, 0xFF	; 255
    3332:	7f 4f       	sbci	r23, 0xFF	; 255
    3334:	8f 4f       	sbci	r24, 0xFF	; 255
    3336:	9f 4f       	sbci	r25, 0xFF	; 255
    3338:	08 95       	ret

0000333a <__fp_split3>:
    333a:	57 fd       	sbrc	r21, 7
    333c:	90 58       	subi	r25, 0x80	; 128
    333e:	44 0f       	add	r20, r20
    3340:	55 1f       	adc	r21, r21
    3342:	59 f0       	breq	.+22     	; 0x335a <__fp_splitA+0x10>
    3344:	5f 3f       	cpi	r21, 0xFF	; 255
    3346:	71 f0       	breq	.+28     	; 0x3364 <__fp_splitA+0x1a>
    3348:	47 95       	ror	r20

0000334a <__fp_splitA>:
    334a:	88 0f       	add	r24, r24
    334c:	97 fb       	bst	r25, 7
    334e:	99 1f       	adc	r25, r25
    3350:	61 f0       	breq	.+24     	; 0x336a <__fp_splitA+0x20>
    3352:	9f 3f       	cpi	r25, 0xFF	; 255
    3354:	79 f0       	breq	.+30     	; 0x3374 <__fp_splitA+0x2a>
    3356:	87 95       	ror	r24
    3358:	08 95       	ret
    335a:	12 16       	cp	r1, r18
    335c:	13 06       	cpc	r1, r19
    335e:	14 06       	cpc	r1, r20
    3360:	55 1f       	adc	r21, r21
    3362:	f2 cf       	rjmp	.-28     	; 0x3348 <__fp_split3+0xe>
    3364:	46 95       	lsr	r20
    3366:	f1 df       	rcall	.-30     	; 0x334a <__fp_splitA>
    3368:	08 c0       	rjmp	.+16     	; 0x337a <__fp_splitA+0x30>
    336a:	16 16       	cp	r1, r22
    336c:	17 06       	cpc	r1, r23
    336e:	18 06       	cpc	r1, r24
    3370:	99 1f       	adc	r25, r25
    3372:	f1 cf       	rjmp	.-30     	; 0x3356 <__fp_splitA+0xc>
    3374:	86 95       	lsr	r24
    3376:	71 05       	cpc	r23, r1
    3378:	61 05       	cpc	r22, r1
    337a:	08 94       	sec
    337c:	08 95       	ret

0000337e <__fp_zero>:
    337e:	e8 94       	clt

00003380 <__fp_szero>:
    3380:	bb 27       	eor	r27, r27
    3382:	66 27       	eor	r22, r22
    3384:	77 27       	eor	r23, r23
    3386:	cb 01       	movw	r24, r22
    3388:	97 f9       	bld	r25, 7
    338a:	08 95       	ret

0000338c <__mulsf3>:
    338c:	0b d0       	rcall	.+22     	; 0x33a4 <__mulsf3x>
    338e:	c4 cf       	rjmp	.-120    	; 0x3318 <__fp_round>
    3390:	b5 df       	rcall	.-150    	; 0x32fc <__fp_pscA>
    3392:	28 f0       	brcs	.+10     	; 0x339e <__mulsf3+0x12>
    3394:	ba df       	rcall	.-140    	; 0x330a <__fp_pscB>
    3396:	18 f0       	brcs	.+6      	; 0x339e <__mulsf3+0x12>
    3398:	95 23       	and	r25, r21
    339a:	09 f0       	breq	.+2      	; 0x339e <__mulsf3+0x12>
    339c:	a6 cf       	rjmp	.-180    	; 0x32ea <__fp_inf>
    339e:	ab cf       	rjmp	.-170    	; 0x32f6 <__fp_nan>
    33a0:	11 24       	eor	r1, r1
    33a2:	ee cf       	rjmp	.-36     	; 0x3380 <__fp_szero>

000033a4 <__mulsf3x>:
    33a4:	ca df       	rcall	.-108    	; 0x333a <__fp_split3>
    33a6:	a0 f3       	brcs	.-24     	; 0x3390 <__mulsf3+0x4>

000033a8 <__mulsf3_pse>:
    33a8:	95 9f       	mul	r25, r21
    33aa:	d1 f3       	breq	.-12     	; 0x33a0 <__mulsf3+0x14>
    33ac:	95 0f       	add	r25, r21
    33ae:	50 e0       	ldi	r21, 0x00	; 0
    33b0:	55 1f       	adc	r21, r21
    33b2:	62 9f       	mul	r22, r18
    33b4:	f0 01       	movw	r30, r0
    33b6:	72 9f       	mul	r23, r18
    33b8:	bb 27       	eor	r27, r27
    33ba:	f0 0d       	add	r31, r0
    33bc:	b1 1d       	adc	r27, r1
    33be:	63 9f       	mul	r22, r19
    33c0:	aa 27       	eor	r26, r26
    33c2:	f0 0d       	add	r31, r0
    33c4:	b1 1d       	adc	r27, r1
    33c6:	aa 1f       	adc	r26, r26
    33c8:	64 9f       	mul	r22, r20
    33ca:	66 27       	eor	r22, r22
    33cc:	b0 0d       	add	r27, r0
    33ce:	a1 1d       	adc	r26, r1
    33d0:	66 1f       	adc	r22, r22
    33d2:	82 9f       	mul	r24, r18
    33d4:	22 27       	eor	r18, r18
    33d6:	b0 0d       	add	r27, r0
    33d8:	a1 1d       	adc	r26, r1
    33da:	62 1f       	adc	r22, r18
    33dc:	73 9f       	mul	r23, r19
    33de:	b0 0d       	add	r27, r0
    33e0:	a1 1d       	adc	r26, r1
    33e2:	62 1f       	adc	r22, r18
    33e4:	83 9f       	mul	r24, r19
    33e6:	a0 0d       	add	r26, r0
    33e8:	61 1d       	adc	r22, r1
    33ea:	22 1f       	adc	r18, r18
    33ec:	74 9f       	mul	r23, r20
    33ee:	33 27       	eor	r19, r19
    33f0:	a0 0d       	add	r26, r0
    33f2:	61 1d       	adc	r22, r1
    33f4:	23 1f       	adc	r18, r19
    33f6:	84 9f       	mul	r24, r20
    33f8:	60 0d       	add	r22, r0
    33fa:	21 1d       	adc	r18, r1
    33fc:	82 2f       	mov	r24, r18
    33fe:	76 2f       	mov	r23, r22
    3400:	6a 2f       	mov	r22, r26
    3402:	11 24       	eor	r1, r1
    3404:	9f 57       	subi	r25, 0x7F	; 127
    3406:	50 40       	sbci	r21, 0x00	; 0
    3408:	8a f0       	brmi	.+34     	; 0x342c <__mulsf3_pse+0x84>
    340a:	e1 f0       	breq	.+56     	; 0x3444 <__mulsf3_pse+0x9c>
    340c:	88 23       	and	r24, r24
    340e:	4a f0       	brmi	.+18     	; 0x3422 <__mulsf3_pse+0x7a>
    3410:	ee 0f       	add	r30, r30
    3412:	ff 1f       	adc	r31, r31
    3414:	bb 1f       	adc	r27, r27
    3416:	66 1f       	adc	r22, r22
    3418:	77 1f       	adc	r23, r23
    341a:	88 1f       	adc	r24, r24
    341c:	91 50       	subi	r25, 0x01	; 1
    341e:	50 40       	sbci	r21, 0x00	; 0
    3420:	a9 f7       	brne	.-22     	; 0x340c <__mulsf3_pse+0x64>
    3422:	9e 3f       	cpi	r25, 0xFE	; 254
    3424:	51 05       	cpc	r21, r1
    3426:	70 f0       	brcs	.+28     	; 0x3444 <__mulsf3_pse+0x9c>
    3428:	60 cf       	rjmp	.-320    	; 0x32ea <__fp_inf>
    342a:	aa cf       	rjmp	.-172    	; 0x3380 <__fp_szero>
    342c:	5f 3f       	cpi	r21, 0xFF	; 255
    342e:	ec f3       	brlt	.-6      	; 0x342a <__mulsf3_pse+0x82>
    3430:	98 3e       	cpi	r25, 0xE8	; 232
    3432:	dc f3       	brlt	.-10     	; 0x342a <__mulsf3_pse+0x82>
    3434:	86 95       	lsr	r24
    3436:	77 95       	ror	r23
    3438:	67 95       	ror	r22
    343a:	b7 95       	ror	r27
    343c:	f7 95       	ror	r31
    343e:	e7 95       	ror	r30
    3440:	9f 5f       	subi	r25, 0xFF	; 255
    3442:	c1 f7       	brne	.-16     	; 0x3434 <__mulsf3_pse+0x8c>
    3444:	fe 2b       	or	r31, r30
    3446:	88 0f       	add	r24, r24
    3448:	91 1d       	adc	r25, r1
    344a:	96 95       	lsr	r25
    344c:	87 95       	ror	r24
    344e:	97 f9       	bld	r25, 7
    3450:	08 95       	ret

00003452 <__mulsi3>:
    3452:	62 9f       	mul	r22, r18
    3454:	d0 01       	movw	r26, r0
    3456:	73 9f       	mul	r23, r19
    3458:	f0 01       	movw	r30, r0
    345a:	82 9f       	mul	r24, r18
    345c:	e0 0d       	add	r30, r0
    345e:	f1 1d       	adc	r31, r1
    3460:	64 9f       	mul	r22, r20
    3462:	e0 0d       	add	r30, r0
    3464:	f1 1d       	adc	r31, r1
    3466:	92 9f       	mul	r25, r18
    3468:	f0 0d       	add	r31, r0
    346a:	83 9f       	mul	r24, r19
    346c:	f0 0d       	add	r31, r0
    346e:	74 9f       	mul	r23, r20
    3470:	f0 0d       	add	r31, r0
    3472:	65 9f       	mul	r22, r21
    3474:	f0 0d       	add	r31, r0
    3476:	99 27       	eor	r25, r25
    3478:	72 9f       	mul	r23, r18
    347a:	b0 0d       	add	r27, r0
    347c:	e1 1d       	adc	r30, r1
    347e:	f9 1f       	adc	r31, r25
    3480:	63 9f       	mul	r22, r19
    3482:	b0 0d       	add	r27, r0
    3484:	e1 1d       	adc	r30, r1
    3486:	f9 1f       	adc	r31, r25
    3488:	bd 01       	movw	r22, r26
    348a:	cf 01       	movw	r24, r30
    348c:	11 24       	eor	r1, r1
    348e:	08 95       	ret

00003490 <__divmodhi4>:
    3490:	97 fb       	bst	r25, 7
    3492:	09 2e       	mov	r0, r25
    3494:	07 26       	eor	r0, r23
    3496:	0a d0       	rcall	.+20     	; 0x34ac <__divmodhi4_neg1>
    3498:	77 fd       	sbrc	r23, 7
    349a:	04 d0       	rcall	.+8      	; 0x34a4 <__divmodhi4_neg2>
    349c:	27 d0       	rcall	.+78     	; 0x34ec <__udivmodhi4>
    349e:	06 d0       	rcall	.+12     	; 0x34ac <__divmodhi4_neg1>
    34a0:	00 20       	and	r0, r0
    34a2:	1a f4       	brpl	.+6      	; 0x34aa <__divmodhi4_exit>

000034a4 <__divmodhi4_neg2>:
    34a4:	70 95       	com	r23
    34a6:	61 95       	neg	r22
    34a8:	7f 4f       	sbci	r23, 0xFF	; 255

000034aa <__divmodhi4_exit>:
    34aa:	08 95       	ret

000034ac <__divmodhi4_neg1>:
    34ac:	f6 f7       	brtc	.-4      	; 0x34aa <__divmodhi4_exit>
    34ae:	90 95       	com	r25
    34b0:	81 95       	neg	r24
    34b2:	9f 4f       	sbci	r25, 0xFF	; 255
    34b4:	08 95       	ret

000034b6 <__divmodsi4>:
    34b6:	97 fb       	bst	r25, 7
    34b8:	09 2e       	mov	r0, r25
    34ba:	05 26       	eor	r0, r21
    34bc:	0e d0       	rcall	.+28     	; 0x34da <__divmodsi4_neg1>
    34be:	57 fd       	sbrc	r21, 7
    34c0:	04 d0       	rcall	.+8      	; 0x34ca <__divmodsi4_neg2>
    34c2:	28 d0       	rcall	.+80     	; 0x3514 <__udivmodsi4>
    34c4:	0a d0       	rcall	.+20     	; 0x34da <__divmodsi4_neg1>
    34c6:	00 1c       	adc	r0, r0
    34c8:	38 f4       	brcc	.+14     	; 0x34d8 <__divmodsi4_exit>

000034ca <__divmodsi4_neg2>:
    34ca:	50 95       	com	r21
    34cc:	40 95       	com	r20
    34ce:	30 95       	com	r19
    34d0:	21 95       	neg	r18
    34d2:	3f 4f       	sbci	r19, 0xFF	; 255
    34d4:	4f 4f       	sbci	r20, 0xFF	; 255
    34d6:	5f 4f       	sbci	r21, 0xFF	; 255

000034d8 <__divmodsi4_exit>:
    34d8:	08 95       	ret

000034da <__divmodsi4_neg1>:
    34da:	f6 f7       	brtc	.-4      	; 0x34d8 <__divmodsi4_exit>
    34dc:	90 95       	com	r25
    34de:	80 95       	com	r24
    34e0:	70 95       	com	r23
    34e2:	61 95       	neg	r22
    34e4:	7f 4f       	sbci	r23, 0xFF	; 255
    34e6:	8f 4f       	sbci	r24, 0xFF	; 255
    34e8:	9f 4f       	sbci	r25, 0xFF	; 255
    34ea:	08 95       	ret

000034ec <__udivmodhi4>:
    34ec:	aa 1b       	sub	r26, r26
    34ee:	bb 1b       	sub	r27, r27
    34f0:	51 e1       	ldi	r21, 0x11	; 17
    34f2:	07 c0       	rjmp	.+14     	; 0x3502 <__udivmodhi4_ep>

000034f4 <__udivmodhi4_loop>:
    34f4:	aa 1f       	adc	r26, r26
    34f6:	bb 1f       	adc	r27, r27
    34f8:	a6 17       	cp	r26, r22
    34fa:	b7 07       	cpc	r27, r23
    34fc:	10 f0       	brcs	.+4      	; 0x3502 <__udivmodhi4_ep>
    34fe:	a6 1b       	sub	r26, r22
    3500:	b7 0b       	sbc	r27, r23

00003502 <__udivmodhi4_ep>:
    3502:	88 1f       	adc	r24, r24
    3504:	99 1f       	adc	r25, r25
    3506:	5a 95       	dec	r21
    3508:	a9 f7       	brne	.-22     	; 0x34f4 <__udivmodhi4_loop>
    350a:	80 95       	com	r24
    350c:	90 95       	com	r25
    350e:	bc 01       	movw	r22, r24
    3510:	cd 01       	movw	r24, r26
    3512:	08 95       	ret

00003514 <__udivmodsi4>:
    3514:	a1 e2       	ldi	r26, 0x21	; 33
    3516:	1a 2e       	mov	r1, r26
    3518:	aa 1b       	sub	r26, r26
    351a:	bb 1b       	sub	r27, r27
    351c:	fd 01       	movw	r30, r26
    351e:	0d c0       	rjmp	.+26     	; 0x353a <__udivmodsi4_ep>

00003520 <__udivmodsi4_loop>:
    3520:	aa 1f       	adc	r26, r26
    3522:	bb 1f       	adc	r27, r27
    3524:	ee 1f       	adc	r30, r30
    3526:	ff 1f       	adc	r31, r31
    3528:	a2 17       	cp	r26, r18
    352a:	b3 07       	cpc	r27, r19
    352c:	e4 07       	cpc	r30, r20
    352e:	f5 07       	cpc	r31, r21
    3530:	20 f0       	brcs	.+8      	; 0x353a <__udivmodsi4_ep>
    3532:	a2 1b       	sub	r26, r18
    3534:	b3 0b       	sbc	r27, r19
    3536:	e4 0b       	sbc	r30, r20
    3538:	f5 0b       	sbc	r31, r21

0000353a <__udivmodsi4_ep>:
    353a:	66 1f       	adc	r22, r22
    353c:	77 1f       	adc	r23, r23
    353e:	88 1f       	adc	r24, r24
    3540:	99 1f       	adc	r25, r25
    3542:	1a 94       	dec	r1
    3544:	69 f7       	brne	.-38     	; 0x3520 <__udivmodsi4_loop>
    3546:	60 95       	com	r22
    3548:	70 95       	com	r23
    354a:	80 95       	com	r24
    354c:	90 95       	com	r25
    354e:	9b 01       	movw	r18, r22
    3550:	ac 01       	movw	r20, r24
    3552:	bd 01       	movw	r22, r26
    3554:	cf 01       	movw	r24, r30
    3556:	08 95       	ret

00003558 <__tablejump_elpm__>:
    3558:	07 90       	elpm	r0, Z+
    355a:	f6 91       	elpm	r31, Z+
    355c:	e0 2d       	mov	r30, r0
    355e:	19 94       	eijmp

00003560 <_exit>:
    3560:	f8 94       	cli

00003562 <__stop_program>:
    3562:	ff cf       	rjmp	.-2      	; 0x3562 <__stop_program>
